(lp0
(lp1
(F5.2905115435404575
F-0.046247237514487338
tp2
a(F5.479314961133839
F0.098234843551351148
tp3
a(F5.487939029792512
F-0.24127585611049796
tp4
a(F5.2905115435404575
F-0.046247237514487338
tp5
aa(lp6
(F8.601545789209103
F-0.0087087440000956917
tp7
a(F8.709358254025105
F-0.22766428033281549
tp8
a(F8.453396013991247
F-0.45528318705390092
tp9
a(F8.601545789209103
F-0.0087087440000956917
tp10
aa(lp11
(F5.027773030887417
F-0.05740704742649605
tp12
a(F5.4053798660741785
F0.2315571147051827
tp13
a(F5.422628003391526
F-0.44746428461851906
tp14
a(F5.027773030887417
F-0.05740704742649605
tp15
aa(lp16
(F8.435056299715919
F0.15797927455124849
tp17
a(F8.657234813823042
F-0.29324142428867894
tp18
a(F8.129751185141437
F-0.76231548325103127
tp19
a(F8.435056299715919
F0.15797927455124849
tp20
aa(lp21
(F4.310294430687385
F1.9471719409938348
tp22
a(F4.369808161305102
F1.9439600894293339
tp23
a(F4.319951696939801
F1.8901107785910494
tp24
a(F4.310294430687385
F1.9471719409938348
tp25
aa(lp26
(F3.953660100198759
F-2.872172083002308
tp27
a(F3.8143378020767464
F-2.9365409731033356
tp28
a(F3.827470523346962
F-2.779679443533798
tp29
a(F3.953660100198759
F-2.872172083002308
tp30
aa(lp31
(F4.765034518234376
F-0.068566857338504761
tp32
a(F5.33144477101452
F0.3648793858590107
tp33
a(F5.357316976990539
F-0.65365271312653839
tp34
a(F4.765034518234376
F-0.068566857338504761
tp35
aa(lp36
(F8.268566810222737
F0.32466729310259446
tp37
a(F8.605111373620979
F-0.35881856824454239
tp38
a(F7.806106356291626
F-1.0693477794481634
tp39
a(F8.268566810222737
F0.32466729310259446
tp40
aa(lp41
(F4.141142185383273
F2.091867527083604
tp42
a(F4.503113434823124
F2.072332574195409
tp43
a(F4.19987909693758
F1.744813157696134
tp44
a(F4.141142185383273
F2.091867527083604
tp45
aa(lp46
(F4.06718228756529
F-2.9306659987944803
tp47
a(F3.6517698853746605
F-3.1225924572555313
tp48
a(F3.690927259059256
F-2.6548839447766976
tp49
a(F4.06718228756529
F-2.9306659987944803
tp50
aa(lp51
(F4.502296005581334
F-0.079726667250515248
tp52
a(F5.25750967595486
F0.49820165701284225
tp53
a(F5.292005950589552
F-0.85984114163455949
tp54
a(F4.502296005581334
F-0.079726667250515248
tp55
aa(lp56
(F3.7398814132975478
F-3.9094424630925504
tp57
a(F3.6683939684017126
F-3.237242037171157
tp58
a(F3.8609887012817925
F-3.853501547551298
tp59
a(F3.7398814132975478
F-3.9094424630925504
tp60
aa(lp61
(F8.102077320729556
F0.49135531165393864
tp62
a(F8.552987933418917
F-0.42439571220040584
tp63
a(F7.482461527441815
F-1.3763800756452955
tp64
a(F8.102077320729556
F0.49135531165393864
tp65
aa(lp66
(F3.9719899400791583
F2.236563113173375
tp67
a(F4.636418708341147
F2.200705058961482
tp68
a(F4.07980649693536
F1.5995155368012188
tp69
a(F3.9719899400791583
F2.236563113173375
tp70
aa(lp71
(F4.1807044749318205
F-2.9891599145866508
tp72
a(F3.4892019686725746
F-3.308643941407725
tp73
a(F3.5543839947715483
F-2.5300884460196
tp74
a(F4.1807044749318205
F-2.9891599145866508
tp75
aa(lp76
(F4.239557492928293
F-0.09088647716252396
tp77
a(F5.1835745808952
F0.63152392816667202
tp78
a(F5.226694924188565
F-1.0660295701425797
tp79
a(F4.239557492928293
F-0.09088647716252396
tp80
aa(lp81
(F7.935587831236375
F0.6580433302052846
tp82
a(F8.500864493216854
F-0.48997285615626929
tp83
a(F7.158816698592007
F-1.6834123718424268
tp84
a(F7.935587831236375
F0.6580433302052846
tp85
aa(lp86
(F3.802837694775043
F2.381258699263144
tp87
a(F4.7697239818591735
F2.329077543727557
tp88
a(F3.959733896933141
F1.4542179159063053
tp89
a(F3.802837694775043
F2.381258699263144
tp90
aa(lp91
(F3.5800027204163527
F-3.9495189750340867
tp92
a(F3.5220321746246874
F-3.404418704226627
tp93
a(F3.3266340519704887
F-3.49469542555992
tp94
a(F3.4169315884085325
F-2.4161520383522213
tp95
a(F3.3972472169808245
F-2.2310587974764164
tp96
a(F3.4617596680812586
F-2.437484024864805
tp97
a(F4.294226662298353
F-3.047653830378822
tp98
a(F3.733425181404826
F-3.306752118152658
tp99
a(F3.8896098607683776
F-3.8065077064500326
tp100
a(F3.5800027204163527
F-3.9495189750340867
tp101
aa(lp102
(F3.976818980275251
F-0.10204628707453267
tp103
a(F5.1096394858355385
F0.7648461993205018
tp104
a(F5.161383897787579
F-1.2722179986506
tp105
a(F3.976818980275251
F-0.10204628707453267
tp106
aa(lp107
(F7.769098341743194
F0.82473134875662879
tp108
a(F8.448741053014794
F-0.55555000011213274
tp109
a(F6.835171869742199
F-1.990444668039557
tp110
a(F7.769098341743194
F0.82473134875662879
tp111
aa(lp112
(F3.6336854494709314
F2.5259542853529133
tp113
a(F4.903029255377195
F2.4574500284936303
tp114
a(F3.8396612969309203
F1.30892029501139
tp115
a(F3.6336854494709314
F2.5259542853529133
tp116
aa(lp117
(F3.420124027535156
F-3.989595486975624
tp118
a(F3.376824691668908
F-3.582449420224796
tp119
a(F3.1640661352684027
F-3.6807469097121146
tp120
a(F3.262386289209081
F-2.5063787481319757
tp121
a(F3.1261004655599347
F-1.2248755577816661
tp122
a(F3.507916937364932
F-2.44660176208098
tp123
a(F4.407748849664883
F-3.106147746170995
tp124
a(F3.8015661751822147
F-3.3862127930506443
tp125
a(F3.9182310202549573
F-3.759513865348765
tp126
a(F3.420124027535156
F-3.989595486975624
tp127
aa(lp128
(F3.7140804676222103
F-0.11320609698654316
tp129
a(F5.03570439077588
F0.89816847047433157
tp130
a(F5.096072871386592
F-1.4784064271586193
tp131
a(F3.7140804676222103
F-0.11320609698654316
tp132
aa(lp133
(F5.239424451746528
F-0.17894630149899093
tp134
a(F5.213083926522891
F0.016417042010427707
tp135
a(F5.407636986816188
F-0.071107068241241578
tp136
a(F5.239424451746528
F-0.17894630149899093
tp137
aa(lp138
(F7.602608852250011
F0.9914193673079712
tp139
a(F8.396617612812731
F-0.62112714406799441
tp140
a(F6.511527040892388
F-2.2974769642366875
tp141
a(F7.602608852250011
F0.9914193673079712
tp142
aa(lp143
(F3.464533204166818
F2.6706498714426843
tp144
a(F5.036334528895219
F2.5858225132597035
tp145
a(F3.7195886969287013
F1.1636226741164766
tp146
a(F3.464533204166818
F2.6706498714426843
tp147
aa(lp148
(F3.260245334653961
F-4.02967199891716
tp149
a(F3.2316172087131303
F-3.7604801362229683
tp150
a(F3.001498218566315
F-3.8667983938643093
tp151
a(F3.107840990009631
F-2.5966054579117284
tp152
a(F2.8549537141390466
F-0.21869231808691581
tp153
a(F3.5540742066486075
F-2.4557194992971576
tp154
a(F4.521271037031415
F-3.1646416619631648
tp155
a(F3.869707168959602
F-3.4656734679486325
tp156
a(F3.9468521797415406
F-3.7125200242474996
tp157
a(F3.260245334653961
F-4.02967199891716
tp158
aa(lp159
(F4.909601923630959
F-2.2372776844371796
tp160
a(F4.598202690859889
F-1.2572915662832473
tp161
a(F3.4513419549691697
F-0.12436590689855009
tp162
a(F4.961769295716221
F1.0314907416281613
tp163
a(F5.030761844985607
F-1.6845948556666404
tp164
a(F4.682387281746441
F-1.3404532616447131
tp165
a(F4.909601923630959
F-2.2372776844371796
tp166
aa(lp167
(F5.110232706842273
F-0.25768521689287027
tp168
a(F5.034247904737808
F0.30588156353374707
tp169
a(F5.595477252280946
F0.053399802430698529
tp170
a(F5.110232706842273
F-0.25768521689287027
tp171
aa(lp172
(F7.436119362756832
F1.1581073858593172
tp173
a(F8.34449417261067
F-0.68670428802385963
tp174
a(F6.187882212042579
F-2.6045092604338187
tp175
a(F7.436119362756832
F1.1581073858593172
tp176
aa(lp177
(F3.2953809588627028
F2.8153454575324535
tp178
a(F5.169639802413241
F2.7141949980257785
tp179
a(F3.5995160969264806
F1.0183250532215613
tp180
a(F3.2953809588627028
F2.8153454575324535
tp181
aa(lp182
(F3.100366641772764
F-4.069748510858698
tp183
a(F3.086409725757349
F-3.9385108522211425
tp184
a(F2.838930301864231
F-4.052849878016503
tp185
a(F2.9532956908101795
F-2.686832167691483
tp186
a(F2.583806962718157
F0.7874909216078354
tp187
a(F3.600231475932281
F-2.4648372365133335
tp188
a(F4.634793224397944
F-3.223135577755336
tp189
a(F3.9378481627369926
F-3.54513414284662
tp190
a(F3.975473339228124
F-3.665526183146234
tp191
a(F3.100366641772764
F-4.069748510858698
tp192
aa(lp193
(F5.567210249725678
F-4.892308454274596
tp194
a(F5.556101503811854
F-4.902017620388642
tp195
a(F4.431717487827193
F-1.3635351477962514
tp196
a(F3.188603442316129
F-0.13552571681056058
tp197
a(F4.887834200656561
F1.164813012781993
tp198
a(F4.965450818584619
F-1.8907832841746597
tp199
a(F4.753784936517942
F-1.6816892751942305
tp200
a(F5.567210249725678
F-4.892308454274596
tp201
aa(lp202
(F2.335841057642803
F1.5757033720347113
tp203
a(F2.3751118616025497
F1.5938430295575117
tp204
a(F3.6463887452159565
F-2.4739549737295112
tp205
a(F4.748315411764475
F-3.2816294935475083
tp206
a(F2.676362385162143
F-4.238901362168699
tp207
a(F2.798750391610726
F-2.7770588774712373
tp208
a(F2.335841057642803
F1.5757033720347113
tp209
aa(lp210
(F4.981040961938015
F-0.33642413228674961
tp211
a(F4.855411882952721
F0.59534608505706821
tp212
a(F5.783317517745705
F0.17790667310263864
tp213
a(F4.981040961938015
F-0.33642413228674961
tp214
aa(lp215
(F7.269629873263649
F1.3247954044106614
tp216
a(F8.292370732408608
F-0.7522814319797213
tp217
a(F5.864237383192767
F-2.9115415566309535
tp218
a(F7.269629873263649
F1.3247954044106614
tp219
aa(lp220
(F3.1262287135585876
F2.9600410436222226
tp221
a(F5.302945075931266
F2.8425674827918517
tp222
a(F3.47944349692426
F0.87302743232664781
tp223
a(F3.1262287135585876
F2.9600410436222226
tp224
aa(lp225
(F5.532098301548114
F-4.813147206475096
tp226
a(F5.372062893967403
F-4.953019912933961
tp227
a(F4.265232284794493
F-1.4697787293092572
tp228
a(F2.925864929663085
F-0.14668552672256929
tp229
a(F4.8138991055969
F1.2981352839358227
tp230
a(F4.900139792183632
F-2.0969717126826817
tp231
a(F4.825182591289441
F-2.0229252887437443
tp232
a(F5.532098301548114
F-4.813147206475096
tp233
aa(lp234
(F2.1759623647616078
F1.535626860093176
tp235
a(F2.403733021089133
F1.640836870658779
tp236
a(F2.9074331104749245
F0.02911070441621888
tp237
a(F4.739964010537242
F1.4314575550896507
tp238
a(F4.754742890934947
F0.84964539395877203
tp239
a(F5.971157783210463
F0.30241354377457874
tp240
a(F4.85184921703376
F-0.41516304768062895
tp241
a(F4.77178734088149
F0.17864272042570839
tp242
a(F4.829669811101796
F-2.1000633915541833
tp243
a(F5.496986353370554
F-4.733985958675602
tp244
a(F5.188024284122957
F-5.004022205479277
tp245
a(F4.685232938650836
F-3.4217172829335682
tp246
a(F2.513794468460059
F-4.424952846320892
tp247
a(F2.6442050924112745
F-2.86728558725099
tp248
a(F2.1759623647616078
F1.535626860093176
tp249
aa(lp250
(F7.1031403837704685
F1.4914834229620055
tp251
a(F8.240247292206545
F-0.81785857593558475
tp252
a(F5.540592554342962
F-3.218573852828082
tp253
a(F7.1031403837704685
F1.4914834229620055
tp254
aa(lp255
(F2.9570764682544777
F3.104736629711992
tp256
a(F5.436250349449289
F2.970939967557925
tp257
a(F3.359370896922041
F0.72772981143173254
tp258
a(F2.9570764682544777
F3.104736629711992
tp259
aa(lp260
(F3.101062838625813
F-0.59046055633889161
tp261
a(F3.69254601449963
F-2.483072710945688
tp262
a(F4.597812691838302
F-3.1466021917385483
tp263
a(F4.098747081761793
F-1.576022310822263
tp264
a(F3.101062838625813
F-0.59046055633889161
tp265
aa(lp266
(F2.016083671880411
F1.4955503481516388
tp267
a(F2.432354180575718
F1.6878307117600446
tp268
a(F2.894488389630782
F0.20910594528620585
tp269
a(F4.666028915477581
F1.5647798262434822
tp270
a(F4.678008310756867
F1.093177264417161
tp271
a(F6.158998048675225
F0.42692041444652062
tp272
a(F4.722657472129503
F-0.49390196307450829
tp273
a(F4.717316148683241
F-0.45428624553024299
tp274
a(F4.75293761896569
F-1.8566255330793258
tp275
a(F5.461874405192992
F-4.654824710876105
tp276
a(F5.224552368235935
F-4.862246781487396
tp277
a(F5.654577921231703
F-4.821840910914177
tp278
a(F4.901060325993147
F-5.260982721063363
tp279
a(F4.834537064885055
F-4.898893226702082
tp280
a(F4.950899343920158
F-4.887959645770569
tp281
a(F4.541362448114561
F-3.599130289352747
tp282
a(F2.3512265517579714
F-4.611004330473087
tp283
a(F2.489659793211821
F-2.957512297030746
tp284
a(F2.016083671880411
F1.4955503481516388
tp285
aa(lp286
(F6.936650894277286
F1.6581714415133515
tp287
a(F8.188123852004484
F-0.8834357198914482
tp288
a(F5.216947725493149
F-3.525606149025215
tp289
a(F6.936650894277286
F1.6581714415133515
tp290
aa(lp291
(F2.7879242229503607
F3.249432215801761
tp292
a(F5.569555622967313
F3.099312452324
tp293
a(F3.239298296919822
F0.58243219053681905
tp294
a(F2.7879242229503607
F3.249432215801761
tp295
aa(lp296
(F3.286096745856753
F-1.0439520706817334
tp297
a(F3.738703283783302
F-2.4921904481618657
tp298
a(F4.326531455918401
F-2.923048372811066
tp299
a(F3.9322618787290917
F-1.6822658923352698
tp300
a(F3.286096745856753
F-1.0439520706817334
tp301
aa(lp302
(F5.368510182187623
F3.912109973982197
tp303
a(F5.393105260145689
F3.9255342557297332
tp304
a(F5.39560036917658
F3.8928616541176293
tp305
a(F5.368510182187623
F3.912109973982197
tp306
aa(lp307
(F4.948208814655009
F1.1806325123691597
tp308
a(F5.635111016378919
F3.1309592788030596
tp309
a(F5.724407779082354
F3.0399315548003436
tp310
a(F5.102639972365016
F1.1111581507049078
tp311
a(F6.346838314139981
F0.55142728511846073
tp312
a(F4.648871750238487
F-0.53712067756817028
tp313
a(F4.676205426829583
F-1.6131876746044718
tp314
a(F5.089034069594442
F-3.242637283085096
tp315
a(F6.770161404784105
F1.8248594600646957
tp316
a(F8.136000411802423
F-0.94901286384731165
tp317
a(F5.175038549215044
F-3.582100079820325
tp318
a(F5.342318992239034
F-4.242362048482127
tp319
a(F6.831823053380467
F-4.102405927517928
tp320
a(F4.784651909352219
F-5.29547487183254
tp321
a(F4.653762505708493
F-4.583037189236122
tp322
a(F4.39749195757829
F-3.7765432957719316
tp323
a(F2.1886586350558836
F-4.797055814625282
tp324
a(F2.3351144940123696
F-3.0477390068104997
tp325
a(F1.8562049789992159
F1.4554738362101034
tp326
a(F2.4609753400622996
F1.7348245528613102
tp327
a(F2.8815436687866374
F0.38910118615619105
tp328
a(F3.0991694177898186
F0.55563959690259423
tp329
a(F2.7720720613027936
F2.488335133319282
tp330
a(F2.6856546117554494
F2.556766224805198
tp331
a(F2.7548589694526466
F2.5900408338605523
tp332
a(F2.6187719776462473
F3.394127801891532
tp333
a(F5.702860896485337
F3.227684937090075
tp334
a(F3.5443783675099994
F0.89633637233513319
tp335
a(F4.592093820417921
F1.698102097397312
tp336
a(F4.6012737305787885
F1.3367091348755498
tp337
a(F4.948208814655009
F1.1806325123691597
tp338
aa(lp339
(F3.471130653087691
F-1.4974435850245715
tp340
a(F3.7848605530669754
F-2.5013081853780426
tp341
a(F4.0552502199985
F-2.699494553883582
tp342
a(F3.765776675696392
F-1.7885094738482756
tp343
a(F3.471130653087691
F-1.4974435850245715
tp344
aa(lp345
(F4.8263852562678204
F1.4444486831308172
tp346
a(F5.293045040430996
F2.769439439584268
tp347
a(F4.28979742608236
F1.6858448983229923
tp348
a(F4.313806772393474
F1.675043748906809
tp349
a(F4.518158725358262
F1.8314243685511435
tp350
a(F4.52453915040071
F1.5802410053339386
tp351
a(F4.8263852562678204
F1.4444486831308172
tp352
aa(lp353
(F5.677020830360367
F2.9652662763479736
tp354
a(F5.141119724812635
F1.3028582384295646
tp355
a(F6.214940057997275
F0.81977578734680101
tp356
a(F6.603671915290923
F1.9915474786160399
tp357
a(F8.083876971600361
F-1.0145900078031742
tp358
a(F5.166726122151462
F-3.60871751272035
tp359
a(F5.176952387998252
F-3.649080954483197
tp360
a(F7.768379050819333
F-3.4055864700078047
tp361
a(F7.78790420743838
F-3.5118628907627754
tp362
a(F4.668243492711288
F-5.329967022601712
tp363
a(F4.636393382236383
F-5.156605251018219
tp364
a(F4.635908454589607
F-5.157029083115231
tp365
a(F4.253621467042018
F-3.9539563021911093
tp366
a(F2.0260907183537995
F-4.983107298777477
tp367
a(F2.180569194812918
F-3.1379657165902533
tp368
a(F1.696326286118019
F1.4153973242685662
tp369
a(F2.489596499548883
F1.7818183939625758
tp370
a(F2.8685989479424947
F0.56909642702617269
tp371
a(F2.9426392786182376
F0.62575589429213707
tp372
a(F2.6661189784598047
F2.2596105838698826
tp373
a(F2.3311395577576626
F2.5248695969978883
tp374
a(F2.5993959778776574
F2.653851756548267
tp375
a(F2.449619732342134
F3.5388233879812994
tp376
a(F5.83616617000336
F3.356057421856148
tp377
a(F5.572756309461868
F3.0715518990770345
tp378
a(F5.677020830360367
F2.9652662763479736
tp379
aa(lp380
(F5.004778325332036
F3.855232309720808
tp381
a(F5.296517588214747
F4.014467017918644
tp382
a(F5.326113805422305
F3.626914649634763
tp383
a(F5.004778325332036
F3.855232309720808
tp384
aa(lp385
(F5.676422212308887
F-0.070645647650140475
tp386
a(F5.884271430378444
F-0.17697333358233536
tp387
a(F6.067959434347437
F0.37672556975716276
tp388
a(F4.579351591585095
F-0.57760478569752927
tp389
a(F4.599473234693477
F-1.3697498161296169
tp390
a(F4.98446119811928
F-2.889311254678443
tp391
a(F5.833701136737911
F-0.32940961426099946
tp392
a(F5.676422212308887
F-0.070645647650140475
tp393
aa(lp394
(F4.704561697880632
F1.708264853892473
tp395
a(F4.937592511351131
F2.36991105589148
tp396
a(F4.447381194132575
F1.8404402654252543
tp397
a(F4.447804570222631
F1.8237728757923257
tp398
a(F4.704561697880632
F1.708264853892473
tp399
aa(lp400
(F5.62963388163838
F2.8906009978956053
tp401
a(F5.179599477260258
F1.494558326154225
tp402
a(F6.082288556235926
F1.0884631542142937
tp403
a(F6.437182425797743
F2.158235497167384
tp404
a(F8.031753531398298
F-1.0801671517590377
tp405
a(F5.904455207563814
F-2.97190445909293
tp406
a(F7.537762215750827
F-2.818436389301759
tp407
a(F7.671495790797451
F-3.5463550415319496
tp408
a(F4.551835076070359
F-5.364459173370888
tp409
a(F4.513241420602261
F-5.154391943333995
tp410
a(F4.45186984474516
F-5.208031375660548
tp411
a(F4.109750976505746
F-4.1313693086102905
tp412
a(F1.8635228016517136
F-5.169158782929671
tp413
a(F2.0260238956134664
F-3.2281924263700077
tp414
a(F1.7150529252127633
F-0.30411507184813935
tp415
a(F1.612172366397882
F-0.20248457628261463
tp416
a(F1.6973154605421783
F-0.13732870364451166
tp417
a(F1.536447593236824
F1.375320812327029
tp418
a(F2.518217659035466
F1.8288122350638432
tp419
a(F2.6843139619229124
F1.2973416970969325
tp420
a(F2.560165895616816
F2.030886034420483
tp421
a(F1.9766245037598775
F2.49297296919058
tp422
a(F2.443932986302668
F2.7176626792359855
tp423
a(F2.2804674870380204
F3.6835189740710685
tp424
a(F5.009988058179853
F3.5362115405466277
tp425
a(F4.641046468476446
F3.798354645459421
tp426
a(F5.199929916283804
F4.103399780107555
tp427
a(F5.244209708253267
F3.523571009270567
tp428
a(F5.903301631556909
F3.4880009752121914
tp429
a(F5.91403897713045
F3.424558029399906
tp430
a(F5.521618667403431
F3.0007100187805733
tp431
a(F5.62963388163838
F2.8906009978956053
tp432
aa(lp433
(F5.537629953595347
F0.040821599174821088
tp434
a(F5.706138995550802
F-0.045381161923751634
tp435
a(F5.787981049404456
F0.20131897355962281
tp436
a(F5.537629953595347
F0.040821599174821088
tp437
aa(lp438
(F5.592497257992314
F-0.38793649542474107
tp439
a(F5.389582535894554
F-0.054089995873855656
tp440
a(F4.5098314329316995
F-0.61808889382688648
tp441
a(F4.52274104255737
F-1.1263119576547593
tp442
a(F4.879888326644116
F-2.535985226271788
tp443
a(F5.592497257992314
F-0.38793649542474107
tp444
aa(lp445
(F5.582246932916391
F2.8159357194432335
tp446
a(F5.218079229707878
F1.6862584138788836
tp447
a(F5.949637054474579
F1.3571505210817865
tp448
a(F6.2706929363045605
F2.32492351571873
tp449
a(F7.979630091196237
F-1.145744295714901
tp450
a(F6.694144569262827
F-2.288884819370116
tp451
a(F7.307145380682317
F-2.2312863085957106
tp452
a(F7.555087374156523
F-3.5808471923011247
tp453
a(F4.435426659429432
F-5.398951324140063
tp454
a(F4.390089458968135
F-5.15217863564977
tp455
a(F4.26783123490071
F-5.259033668205867
tp456
a(F3.965880485969471
F-4.30878231502947
tp457
a(F1.7009548849496277
F-5.355210267081867
tp458
a(F1.871478596414013
F-3.318419136149764
tp459
a(F1.5638125596284755
F-0.42541825648291542
tp460
a(F1.3494338537448396
F-0.21364438619462334
tp461
a(F1.526851886343458
F-0.077874987021660402
tp462
a(F1.3765689003556272
F1.3352443003854937
tp463
a(F2.4295995979560416
F1.8216518675706723
tp464
a(F1.622109449762089
F2.4610763413832704
tp465
a(F2.288469994727677
F2.781473601923702
tp466
a(F2.111315241733905
F3.8282145601608413
tp467
a(F3.336141781007413
F3.7621128220312308
tp468
a(F3.328378332096392
F3.7764910697178955
tp469
a(F5.487501427606911
F7.29067051733616
tp470
a(F4.387028203561657
F3.801359945271514
tp471
a(F5.103342244352862
F4.192332542296466
tp472
a(F5.14364627746583
F3.6645649774492064
tp473
a(F5.734149386252795
F3.6326965613019624
tp474
a(F5.79396637712823
F3.279260408504989
tp475
a(F5.470481025344996
F2.929868138484114
tp476
a(F5.582246932916391
F2.8159357194432335
tp477
aa(lp478
(F5.3512933792467186
F-0.4464633765884809
tp479
a(F5.188627099706187
F-0.17883583602289299
tp480
a(F4.467888343364433
F-0.64089364182703079
tp481
a(F4.441909274900663
F-0.72148278744497674
tp482
a(F4.446008850421263
F-0.88287409917990445
tp483
a(F4.775315455168954
F-2.1826591978651324
tp484
a(F5.3512933792467186
F-0.4464633765884809
tp485
aa(lp486
(F5.534859984194404
F2.7412704409908635
tp487
a(F5.256558982155499
F1.8779585016035423
tp488
a(F5.816985552713232
F1.6258378879492792
tp489
a(F6.10420344681138
F2.4916115342700724
tp490
a(F6.7335346388611725
F1.2135074771803804
tp491
a(F7.098199375999015
F1.0494547678062212
tp492
a(F6.882426119639927
F0.91112487156123834
tp493
a(F7.927506650994175
F-1.2113214396707637
tp494
a(F7.127683964856359
F-1.9225777771888666
tp495
a(F7.438678957515594
F-3.615339343070298
tp496
a(F4.319018242788503
F-5.433443474909238
tp497
a(F4.266937497334018
F-5.149965327965547
tp498
a(F4.083792625056263
F-5.310035960751184
tp499
a(F3.8220099954332003
F-4.48619532144865
tp500
a(F1.5383869682475417
F-5.541261751234061
tp501
a(F1.7169332972145615
F-3.4086458459295166
tp502
a(F1.4125721940441895
F-0.54672144111768972
tp503
a(F1.086695341091799
F-0.22480419610663205
tp504
a(F1.3563883121447393
F-0.018421270398809142
tp505
a(F1.2166902074744321
F1.2951677884439565
tp506
a(F2.153315868928461
F1.7278064668692075
tp507
a(F1.2675943957643057
F2.4291797135759623
tp508
a(F2.133007003152688
F2.8452845246114187
tp509
a(F1.9421629964297917
F3.9729101462506087
tp510
a(F3.278604133263583
F3.90078476423119
tp511
a(F5.603681831571811
F7.685071208343544
tp512
a(F6.322821488230999
F6.353193041402772
tp513
a(F5.511367545800075
F3.7802864424946208
tp514
a(F5.56499714094868
F3.77739214739173
tp515
a(F5.673893777126011
F3.133962787610077
tp516
a(F5.419343383286561
F2.8590262581876544
tp517
a(F5.534859984194404
F2.7412704409908635
tp518
aa(lp519
(F5.110089500501125
F-0.50499025775222073
tp520
a(F4.987671663517819
F-0.30358167617193388
tp521
a(F4.4401562966205885
F-0.65458784428289896
tp522
a(F4.402617846038048
F-0.77103511661243651
tp523
a(F4.670742583693792
F-1.8293331694584802
tp524
a(F5.110089500501125
F-0.50499025775222073
tp525
aa(lp526
(F1.0568115145932353
F1.2550912765024194
tp527
a(F1.87703213990088
F1.6339610661677426
tp528
a(F0.91307934176652061
F2.3972830857686525
tp529
a(F1.9775440115776988
F2.9090954472991353
tp530
a(F1.7730107511256783
F4.117605732340378
tp531
a(F3.2371312946581074
F4.03858971688388
tp532
a(F5.48074140188389
F7.690279860755556
tp533
a(F6.992485426977154
F4.890463660410626
tp534
a(F6.151538940731221
F2.2240439776016583
tp535
a(F6.492901784370813
F1.5307727065966876
tp536
a(F7.137732266170366
F1.2406810776211277
tp537
a(F7.157811591336867
F1.091756025191998
tp538
a(F6.816737510663206
F0.87309712840581355
tp539
a(F7.875383210792113
F-1.2768985836266262
tp540
a(F7.025212234490583
F-2.03292802033633
tp541
a(F7.322270540874666
F-3.649831493839475
tp542
a(F4.202609826147572
F-5.467935625678411
tp543
a(F4.143785535699894
F-5.14775202028132
tp544
a(F3.8997540152118155
F-5.361038253296502
tp545
a(F3.6781395048969276
F-4.663608327867829
tp546
a(F1.3758190515454558
F-5.727313235386255
tp547
a(F1.5623879980151099
F-3.4988725557092692
tp548
a(F1.2613318284599
F-0.66802462575246402
tp549
a(F0.82395682843875839
F-0.23596400601864076
tp550
a(F1.1859247379460207
F0.041032446224043895
tp551
a(F1.0568115145932353
F1.2550912765024194
tp552
aa(lp553
(F4.86888562175553
F-0.56351713891596056
tp554
a(F4.786716227329453
F-0.42832751632097121
tp555
a(F4.412424249876741
F-0.66828204673876535
tp556
a(F4.383926182651121
F-0.75668532773702246
tp557
a(F4.5154859710351305
F-1.275956578487473
tp558
a(F4.636301916757373
F-1.2646045240990205
tp559
a(F4.86888562175553
F-0.56351713891596056
tp560
aa(lp561
(F0.89693282171203848
F1.215014764560884
tp562
a(F1.6007484108732974
F1.5401156654662778
tp563
a(F0.55856428776873202
F2.3653864579613444
tp564
a(F1.8220810200027096
F2.9729063699868536
tp565
a(F1.6038585058215649
F4.262301318430149
tp566
a(F3.19565845605263
F4.176394669536574
tp567
a(F5.357800972195968
F7.695488513167568
tp568
a(F7.611428059888289
F3.5216723611455
tp569
a(F6.511491703846607
F1.7314206871547437
tp570
a(F6.958896244385278
F1.5301455991444488
tp571
a(F7.028619846432611
F1.0130171097981187
tp572
a(F6.7510489016864845
F0.83506938525038876
tp573
a(F7.82325977059005
F-1.3424757275824897
tp574
a(F6.922740504124809
F-2.1432782634837935
tp575
a(F7.205862124233734
F-3.68432364460865
tp576
a(F4.086201409506643
F-5.502427776447588
tp577
a(F4.020633574065772
F-5.145538712597098
tp578
a(F3.715715405367364
F-5.412040545841819
tp579
a(F3.534269014360653
F-4.841021334287012
tp580
a(F1.213251134843368
F-5.913364719538451
tp581
a(F1.4078426988156565
F-3.5890992654890237
tp582
a(F1.1100914628756105
F-0.78932781038724009
tp583
a(F0.56121831578571602
F-0.24712381593065125
tp584
a(F1.0154611637473003
F0.10048616284689516
tp585
a(F0.89693282171203848
F1.215014764560884
tp586
aa(lp587
(F4.627681743009934
F-0.62204402007970216
tp588
a(F4.585760791141083
F-0.55307335647001032
tp589
a(F4.38935159559967
F-0.67898916317957614
tp590
a(F4.6158506669587895
F-0.65770695774192767
tp591
a(F4.627681743009934
F-0.62204402007970216
tp592
aa(lp593
(F0.73705412883084165
F1.174938252619345
tp594
a(F1.3244646818457149
F1.446270264764813
tp595
a(F0.20404923377094519
F2.3334898301540346
tp596
a(F1.6666180284277186
F3.0367172926745702
tp597
a(F1.4347062605174497
F4.406996904519918
tp598
a(F3.1541856174471565
F4.314199622189268
tp599
a(F5.234860542508046
F7.700697165579584
tp600
a(F7.488487630200365
F3.5268810135575137
tp601
a(F6.51327517826026
F1.9396294285064872
tp602
a(F6.780060222600191
F1.8196101206677717
tp603
a(F6.899428101528352
F0.93427819440423754
tp604
a(F6.685360292709762
F0.79704164209496398
tp605
a(F7.7711363303879875
F-1.408052871538354
tp606
a(F6.820268773759034
F-2.2536285066312587
tp607
a(F7.0894537075928055
F-3.718815795377825
tp608
a(F3.969792992865715
F-5.536919927216764
tp609
a(F3.8974816124316494
F-5.143325404912871
tp610
a(F3.5316767955229142
F-5.463042838387138
tp611
a(F3.3903985238243823
F-5.01843434070619
tp612
a(F1.0506832181412804
F-6.099416203690647
tp613
a(F1.2532973996162031
F-3.679325975268781
tp614
a(F0.95885109729132267
F-0.91063099502201617
tp615
a(F0.36975914172931823
F-0.32869687581532681
tp616
a(F0.36664550278434582
F-0.20611972823677327
tp617
a(F0.84499758954857995
F0.15993987946974819
tp618
a(F0.73705412883084165
F1.174938252619345
tp619
aa(lp620
(F0.5771754359496466
F1.1348617406778097
tp621
a(F1.0481809528181358
F1.352424864063348
tp622
a(F-0.15046582022683808
F2.3015932023467265
tp623
a(F1.5111550368527293
F3.1005282153622886
tp624
a(F1.2655540152133362
F4.551692490609689
tp625
a(F3.1127127788416793
F4.452004574841959
tp626
a(F5.111920112820125
F7.705905817991592
tp627
a(F7.365547200512446
F3.532089665969524
tp628
a(F6.515058652673909
F2.147838169858227
tp629
a(F6.601224200815108
F2.1090746421910893
tp630
a(F6.7702363566241
F0.85553927901035998
tp631
a(F6.619671683733045
F0.75901389893953919
tp632
a(F7.719012890185927
F-1.4736300154942157
tp633
a(F6.71779704339326
F-2.3639787497787204
tp634
a(F6.973045290951878
F-3.7533079461470003
tp635
a(F3.8533845762247854
F-5.571412077985939
tp636
a(F3.7743296507975277
F-5.141112097228647
tp637
a(F3.3476381856784663
F-5.5140451309324545
tp638
a(F3.2465280332881097
F-5.195847347125373
tp639
a(F0.88811530143919626
F-6.285467687842839
tp640
a(F1.0987521004167515
F-3.7695526850485344
tp641
a(F0.8076107317070349
F-1.0319341796567896
tp642
a(F0.30444811532833072
F-0.53488530432334436
tp643
a(F0.29271040772468737
F-0.072797457082943495
tp644
a(F0.67453401534986313
F0.21939359609259945
tp645
a(F0.5771754359496466
F1.1348617406778097
tp646
aa(lp647
(F0.41729674306845155
F1.0947852287362725
tp648
a(F0.77189722379055503
F1.2585794633618832
tp649
a(F-0.5049808742246249
F2.2696965745394166
tp650
a(F1.355692045277742
F3.1643391380500034
tp651
a(F1.0964017699092228
F4.696388076699456
tp652
a(F3.0712399402362056
F4.589809527494651
tp653
a(F4.9889796831322055
F7.711114470403604
tp654
a(F7.242606770824524
F3.537298318381536
tp655
a(F6.444083859662176
F2.237625868629186
tp656
a(F6.641044611719843
F0.77680036361648064
tp657
a(F6.553983074756323
F0.7209861557841144
tp658
a(F7.666889449983864
F-1.53920715945008
tp659
a(F6.615325313027489
F-2.474328992926184
tp660
a(F6.856636874310948
F-3.7878000969161754
tp661
a(F3.7369761595838575
F-5.605904228755113
tp662
a(F3.651177689163408
F-5.13889878954442
tp663
a(F3.1635995758340165
F-5.565047423477775
tp664
a(F3.102657542751837
F-5.373260353544556
tp665
a(F0.72554738473711033
F-6.471519171995034
tp666
a(F0.94420680121729994
F-3.859779394828289
tp667
a(F0.65637036612274713
F-1.1532373642915648
tp668
a(F0.23913708892734498
F-0.74107373283136369
tp669
a(F0.21877531266502714
F0.060524814070886279
tp670
a(F0.50407044115114275
F0.27884731271545071
tp671
a(F0.41729674306845155
F1.0947852287362725
tp672
aa(lp673
(F0.2574180501872565
F1.054708716794737
tp674
a(F0.46874771890665556
F1.1523244370867385
tp675
a(F0.47041810444353516
F1.184685450591953
tp676
a(F-0.85949592822240994
F2.2377999467321086
tp677
a(F1.200229053702751
F3.228150060737722
tp678
a(F0.92724952460510934
F4.841083662789224
tp679
a(F3.02976710163073
F4.727614480147345
tp680
a(F4.866039253444283
F7.716323122815616
tp681
a(F7.119666341136604
F3.542506970793548
tp682
a(F6.306735388011905
F2.219384054020681
tp683
a(F6.5118528668155875
F0.69806144822259952
tp684
a(F6.488294465779604
F0.68295841262868962
tp685
a(F7.614766009781804
F-1.6047843034059417
tp686
a(F6.512853582661713
F-2.5846792360736472
tp687
a(F6.740228457670018
F-3.8222922476853505
tp688
a(F3.620567742942926
F-5.640396379524288
tp689
a(F3.553595553166712
F-5.275863343584654
tp690
a(F3.1615386268140977
F-5.456999238885758
tp691
a(F2.9795609659895685
F-5.61604971602309
tp692
a(F2.958787052215566
F-5.550673359963735
tp693
a(F0.56297946803502263
F-6.657570656147229
tp694
a(F0.78966150201784835
F-3.9500061046080415
tp695
a(F0.50513000053845936
F-1.27454054892634
tp696
a(F0.17382606252635924
F-0.94726216133938301
tp697
a(F0.14484021760536692
F0.19384708522471605
tp698
a(F0.33360686695242592
F0.33830102933830197
tp699
a(F0.2574180501872565
F1.054708716794737
tp700
aa(lp701
(F0.097539357306059671
F1.0146322048532
tp702
a(F0.21932976573539165
F1.0708886619589535
tp703
a(F-0.98645855783456504
F2.025712155536617
tp704
a(F-0.99907349325500761
F2.309248847366078
tp705
a(F1.0447660621277617
F3.2919609834254384
tp706
a(F0.75809727930099591
F4.985779248878995
tp707
a(F2.988294263025253
F4.865419432800035
tp708
a(F4.743098823756363
F7.721531775227632
tp709
a(F6.996725911448682
F3.547715623205562
tp710
a(F6.1693869163616375
F2.2011422394121762
tp711
a(F6.362844424249024
F0.76629972025207493
tp712
a(F7.562642569579741
F-1.6703614473618051
tp713
a(F6.410381852295938
F-2.6950294792211116
tp714
a(F6.62382004102909
F-3.8567843984545256
tp715
a(F3.5041593263019983
F-5.6748885302934635
tp716
a(F3.459241590188327
F-5.430399007586134
tp717
a(F0.40041155133293849
F-6.8436221402994235
tp718
a(F0.63511620281839676
F-4.040232814387798
tp719
a(F0.35388963495417158
F-1.3958437335611134
tp720
a(F0.10851503612537172
F-1.1534505898474032
tp721
a(F0.070905122545708466
F0.32716935637854583
tp722
a(F0.16314329275370376
F0.39775474596115323
tp723
a(F0.097539357306059671
F1.0146322048532
tp724
aa(lp725
(F-0.062339335575135379
F0.97455569291166455
tp726
a(F-0.056953963292189158
F0.97704326125749041
tp727
a(F-1.064001041873997
F1.7744902019624806
tp728
a(F-1.0919706415775892
F2.403142470677233
tp729
a(F0.88930307055277247
F3.355771906113155
tp730
a(F0.58894503399688247
F5.130474834968764
tp731
a(F2.9468214244197775
F5.003224385452729
tp732
a(F4.620158394068441
F7.7267404276396405
tp733
a(F6.873785481760762
F3.5529242756175723
tp734
a(F6.032038444711367
F2.1829004248036714
tp735
a(F6.202148591291588
F0.92122144465295364
tp736
a(F7.51051912937768
F-1.7359385913176695
tp737
a(F6.307910121930164
F-2.805379722368574
tp738
a(F6.507411624388162
F-3.8912765492237016
tp739
a(F3.3877509096610687
F-5.709380681062639
tp740
a(F3.364887627209944
F-5.584934671587612
tp741
a(F0.23784363463085256
F-7.029673624451619
tp742
a(F0.48057090361894517
F-4.13045952416755
tp743
a(F0.20264926936988381
F-1.5171469181958877
tp744
a(F0.043204009724385983
F-1.3596390183554235
tp745
a(F-0.0015740894526743432
F0.4031766992400474
tp746
a(F-0.062339335575135379
F0.97455569291166455
tp747
aa(lp748
(F-1.1848677899001743
F2.4970360939883935
tp749
a(F0.73384007897778325
F3.4195828288008716
tp750
a(F0.41979278869276904
F5.275170421058535
tp751
a(F2.905348585814302
F5.141029338105421
tp752
a(F4.497217964380521
F7.731949080051656
tp753
a(F6.750845052072841
F3.558132928029586
tp754
a(F6.041628643027415
F2.4038153563434914
tp755
a(F6.384752955307087
F0.37893734151226255
tp756
a(F7.458395689175617
F-1.801515735273533
tp757
a(F6.20543839156439
F-2.9157299655160394
tp758
a(F6.391003207747231
F-3.925768699992875
tp759
a(F3.74129677299773
F-5.46998861930539
tp760
a(F3.7367695981664273
F-5.524062680123048
tp761
a(F3.3108887162032303
F-5.720825725642225
tp762
a(F3.271342493020141
F-5.743872831831813
tp763
a(F3.2705336642315608
F-5.739470335589091
tp764
a(F0.20065138026571816
F-7.1577997632779455
tp765
a(F0.087093809144128898
F-7.074565951526563
tp766
a(F0.32602560441949535
F-4.220686233947302
tp767
a(F0.13094011947712225
F-2.386286553549942
tp768
a(F-0.068875133145741785
F-2.383135975241987
tp769
a(F-0.023617846753227312
F-1.506349374889889
tp770
a(F-0.042752993765340364
F-0.75304053571667851
tp771
a(F-0.20605370063467277
F0.78248510617441447
tp772
a(F-1.1415435259134288
F1.5232682483883444
tp773
a(F-1.1848677899001743
F2.4970360939883935
tp774
aa(lp775
(F6.747947216884671
F-2.4525199486728173
tp776
a(F6.84790253077608
F-3.0423858087151068
tp777
a(F6.169835091089201
F-3.3900484742672194
tp778
a(F6.274594791106303
F-3.960260850762049
tp779
a(F3.589700792677842
F-5.524987697193931
tp780
a(F3.5742016814643396
F-5.710114164275244
tp781
a(F0.31417356763224902
F-7.216293679070117
tp782
a(F-0.049449455143578902
F-6.949770452769465
tp783
a(F0.17148030522004198
F-4.310912943727058
tp784
a(F0.080293859490984332
F-3.4534817158150224
tp785
a(F-0.24223830949797787
F-3.4483962038638776
tp786
a(F-0.13702366497541973
F-1.4100329295371576
tp787
a(F-0.3489839620499211
F0.58304154919844997
tp788
a(F-1.2190860099528624
F1.2720462948142064
tp789
a(F-1.2777649382227576
F2.5909297172995505
tp790
a(F0.57837708740279403
F3.48339375148859
tp791
a(F0.25064054338865382
F5.419866007148304
tp792
a(F2.8638757472088283
F5.2788342907581125
tp793
a(F4.374277534692599
F7.737157732463665
tp794
a(F6.627904622384917
F3.5633415804415964
tp795
a(F5.9229595727668665
F2.415976054956243
tp796
a(F6.251251015264806
F0.47863119019047318
tp797
a(F7.406272248973556
F-1.8670928792293955
tp798
a(F6.747947216884671
F-2.4525199486728173
tp799
aa(lp800
(F6.64944064366727
F-2.5593441063516957
tp801
a(F6.730970904302019
F-3.040478279578707
tp802
a(F6.047269972283626
F-3.3910293819524533
tp803
a(F6.158186374465374
F-3.994753001531226
tp804
a(F3.438104812357958
F-5.5799867750824745
tp805
a(F3.4116337647622537
F-5.896165648427438
tp806
a(F0.42769575499878165
F-7.274787594862289
tp807
a(F-0.18599271943128493
F-6.824974954012364
tp808
a(F0.016935006020588617
F-4.401139653506813
tp809
a(F-0.045423133273510885
F-3.8147825966244913
tp810
a(F-0.37681352015518144
F-3.7622024393903057
tp811
a(F-0.27035481359895464
F-1.699737478725913
tp812
a(F-0.49191422346516767
F0.38359799222248903
tp813
a(F-1.2966284939922943
F1.0208243412400684
tp814
a(F-1.3706620865453427
F2.684823340610709
tp815
a(F0.42291409582780304
F3.5472046741763066
tp816
a(F0.081488298084540389
F5.564561593238075
tp817
a(F2.822402908603351
F5.416639243410806
tp818
a(F4.251337105004678
F7.74236638487568
tp819
a(F6.504964192696996
F3.5685502328536085
tp820
a(F5.804290502506322
F2.428136753568996
tp821
a(F6.117749075222529
F0.57832503886868025
tp822
a(F7.354148808771493
F-1.932670023185259
tp823
a(F6.64944064366727
F-2.5593441063516957
tp824
aa(lp825
(F5.685046405457204
F2.439361541058183
tp826
a(F5.685721382029587
F2.439707618956346
tp827
a(F5.9842471351802535
F0.67801888754689088
tp828
a(F7.302025368569432
F-1.9982471671411224
tp829
a(F6.550934070449867
F-2.666168264030574
tp830
a(F6.61403927782796
F-3.0385707504423056
tp831
a(F5.92470485347805
F-3.3920102896376854
tp832
a(F6.041777957824444
F-4.029245152300401
tp833
a(F3.28650883203807
F-5.634985852971014
tp834
a(F3.249065848060166
F-6.0822171325796335
tp835
a(F0.54121794236531073
F-7.33328151065446
tp836
a(F-0.32253598371899272
F-6.700179455255268
tp837
a(F-0.13761029317886475
F-4.491366363286568
tp838
a(F-0.21245852375530383
F-3.787564282428063
tp839
a(F-0.49419266953834118
F-3.742862847896707
tp840
a(F-0.40368596222249131
F-1.989442027914671
tp841
a(F-0.634844484880416
F0.18415443524652453
tp842
a(F-1.3741709780317262
F0.76960238766593037
tp843
a(F-1.463559234867926
F2.778716963921868
tp844
a(F0.26745110425281382
F3.611015596864023
tp845
a(F-0.060071500632329133
F5.546223766491012
tp846
a(F0.082376868716979246
F5.700080375000065
tp847
a(F2.7809300699978756
F5.554444196063498
tp848
a(F4.128396675316756
F7.747575037287689
tp849
a(F6.382023763009075
F3.5737588852656206
tp850
a(F5.685046405457204
F2.439361541058183
tp851
aa(lp852
(F5.556381548484786
F2.435253140285784
tp853
a(F5.568789755555526
F2.4416151480927475
tp854
a(F5.850745195137975
F0.77771273622509796
tp855
a(F7.24990192836737
F-2.063824311096985
tp856
a(F6.452427497232466
F-2.7729924217094526
tp857
a(F6.4971076513538994
F-3.036663221305904
tp858
a(F5.802139734672475
F-3.3929911973229157
tp859
a(F5.925369541183515
F-4.063737303069578
tp860
a(F3.1349128517181857
F-5.689984930859555
tp861
a(F3.086497931358082
F-6.268268616731828
tp862
a(F0.65474012973184159
F-7.391775426446632
tp863
a(F-0.45907924800669697
F-6.575383956498169
tp864
a(F-0.29215559237831457
F-4.581593073066322
tp865
a(F-0.37949391423709677
F-3.7603459682316345
tp866
a(F-0.61157181892149737
F-3.7235232564031104
tp867
a(F-0.53701711084602621
F-2.279146577103427
tp868
a(F-0.77777474629566257
F-0.015289121729436417
tp869
a(F-1.4517134620711598
F0.51838043409179413
tp870
a(F-1.5564563831905094
F2.8726105872330248
tp871
a(F0.1119881126778246
F3.67482651955174
tp872
a(F-0.18014410063454811
F5.400926145596099
tp873
a(F0.21568214223500171
F5.828452859766138
tp874
a(F2.7394572313924
F5.69224914871619
tp875
a(F4.005456245628833
F7.752783689699701
tp876
a(F6.259083333321153
F3.5789675376776344
tp877
a(F5.556381548484786
F2.435253140285784
tp878
aa(lp879
(F5.4277166915123685
F2.4311447395133836
tp880
a(F5.451858129081466
F2.443522677229149
tp881
a(F5.717243255095698
F0.87740658490330858
tp882
a(F7.130993211844677
F-1.9937677319868836
tp883
a(F7.039220672448145
F-2.270401770805867
tp884
a(F6.353920924015063
F-2.879816579388331
tp885
a(F6.38017602487984
F-3.0347556921695036
tp886
a(F5.906690863033265
F-3.2775237471331353
tp887
a(F5.693079739735519
F-3.4674811812533584
tp888
a(F5.808961124542586
F-4.09822945383875
tp889
a(F2.9833168713983014
F-5.744984008748094
tp890
a(F2.923930014655996
F-6.454320100884023
tp891
a(F0.76826231709837245
F-7.450269342238801
tp892
a(F-0.59562251229440477
F-6.450588457741071
tp893
a(F-0.44670089157776793
F-4.671819782846075
tp894
a(F-0.5465293047188915
F-3.733127654035206
tp895
a(F-0.72895096830465533
F-3.7041836649095146
tp896
a(F-0.67034825946956111
F-2.568851126292186
tp897
a(F-0.92070500771090913
F-0.21473267870539914
tp898
a(F-1.5292559461105917
F0.26715848051765612
tp899
a(F-1.6493535315130927
F2.9665042105441835
tp900
a(F-0.043474878897164615
F3.7386374422394564
tp901
a(F-0.30021670063676886
F5.255628524701184
tp902
a(F0.34898741575302417
F5.956825344532213
tp903
a(F2.6979843927869247
F5.830054101368884
tp904
a(F3.8825158159409145
F7.7579923421117165
tp905
a(F6.136142903633232
F3.5841761900896447
tp906
a(F5.4277166915123685
F2.4311447395133836
tp907
aa(lp908
(F5.299051834539951
F2.427036338740983
tp909
a(F5.334926502607405
F2.4454302063655486
tp910
a(F5.583741315053419
F0.97710043358151744
tp911
a(F6.964503722351496
F-1.8270797134355377
tp912
a(F6.715575843598335
F-2.577434067002997
tp913
a(F6.25541435079766
F-2.986640737067212
tp914
a(F6.263244398405778
F-3.032848163033103
tp915
a(F6.12203711917685
F-3.1052487772179678
tp916
a(F5.590608009369744
F-3.57783142440082
tp917
a(F5.692552707901656
F-4.1327216046079265
tp918
a(F2.8317208910784153
F-5.799983086636636
tp919
a(F2.761362097953908
F-6.640371585036215
tp920
a(F0.88178450446490331
F-7.508763258030973
tp921
a(F-0.73216577658211257
F-6.325792958983972
tp922
a(F-0.60124619077721952
F-4.762046492625831
tp923
a(F-0.71356469520068444
F-3.705909339838775
tp924
a(F-0.8463301176878133
F-3.684844073415918
tp925
a(F-0.80367940809309957
F-2.8585556754809467
tp926
a(F-1.0636352691261557
F-0.41417623568136186
tp927
a(F-1.6067984301500253
F0.015936526943518103
tp928
a(F-1.7422506798356778
F3.0603978338553404
tp929
a(F-0.19893787047215383
F3.8024483649271748
tp930
a(F-0.42028930063898784
F5.11033090380627
tp931
a(F0.4822926892710484
F6.085197829298288
tp932
a(F2.6565115541814492
F5.967859054021574
tp933
a(F3.759575386252992
F7.763200994523725
tp934
a(F6.01320247394531
F3.589384842501657
tp935
a(F5.299051834539951
F2.427036338740983
tp936
aa(lp937
(F5.184159659525031
F2.429989547243551
tp938
a(F5.217994876133344
F2.44733773550195
tp939
a(F5.232448482527117
F2.362042730821784
tp940
a(F5.247908288174142
F2.340289362010761
tp941
a(F5.238488686589575
F2.326397700803639
tp942
a(F5.45023937501114
F1.076794282259728
tp943
a(F6.798014232858314
F-1.6603916948841926
tp944
a(F6.3919310147485255
F-2.88446636320013
tp945
a(F5.48813627900397
F-3.6881816675482844
tp946
a(F5.576144291260728
F-4.167213755377102
tp947
a(F2.6801249107585274
F-5.854982164525177
tp948
a(F2.5987941812518223
F-6.8264230691884125
tp949
a(F0.99530669183143416
F-7.567257173823145
tp950
a(F0.40267217702749392
F-7.132876364552868
tp951
a(F0.39943461740480046
F-7.138879652936175
tp952
a(F0.17104290980264203
F-6.978400241937611
tp953
a(F0.17218028007723873
F-6.963933695460071
tp954
a(F-0.86870904086981859
F-6.200997460226874
tp955
a(F-0.75579148997667112
F-4.852273202405584
tp956
a(F-0.88060008568248094
F-3.6786910256423466
tp957
a(F-0.96370926707097304
F-3.665504481922321
tp958
a(F-0.93701055671663624
F-3.1482602246697056
tp959
a(F-1.206565530541404
F-0.61361979265732458
tp960
a(F-1.6843409141894572
F-0.23528542663061991
tp961
a(F-1.8351478281582612
F3.154291457166499
tp962
a(F-0.35440086204714305
F3.8662592876148913
tp963
a(F-0.54036190064120859
F4.965033282911353
tp964
a(F0.61559796278907264
F6.213570314064359
tp965
a(F2.615038715575972
F6.105664006674269
tp966
a(F3.6366349565650715
F7.768409646935737
tp967
a(F5.89026204425739
F3.594593494913669
tp968
a(F5.179099913642716
F2.4371090751846562
tp969
a(F5.184159659525031
F2.429989547243551
tp970
aa(lp971
(F4.628855204351765
F-5.005111432636298
tp972
a(F4.480675071981016
F-4.772291829864216
tp973
a(F3.929307875675722
F-5.0936225992747595
tp974
a(F3.898659841692412
F-5.120876900485396
tp975
a(F3.8950660748998622
F-5.113578346121942
tp976
a(F2.528528930438643
F-5.909981242413717
tp977
a(F2.436226264549738
F-7.012474553340607
tp978
a(F1.1088288791979633
F-7.6257510896153144
tp979
a(F0.41685723111694628
F-7.118559562667278
tp980
a(F0.3918107561629629
F-7.16500232501212
tp981
a(F-0.0014392763217969673
F-6.888685228166159
tp982
a(F0.0042640543984351353
F-6.8161428901221885
tp983
a(F-1.0052523051575246
F-6.076201961469777
tp984
a(F-0.91033678917612448
F-4.942499912185338
tp985
a(F-1.0476354761642739
F-3.6514727114459173
tp986
a(F-1.0810884164541292
F-3.6461648904287243
tp987
a(F-1.0703417053401694
F-3.437964773858461
tp988
a(F-1.3494957919566506
F-0.81306334963328553
tp989
a(F-1.761883398228889
F-0.48650738020475615
tp990
a(F-1.9280449764808445
F3.248185080477656
tp991
a(F-0.50986385362213227
F3.9300702103026097
tp992
a(F-0.66043450064342757
F4.8197356620164395
tp993
a(F0.74890323630709688
F6.341942798830434
tp994
a(F2.5735658769704965
F6.243468959326961
tp995
a(F3.513694526877149
F7.773618299347749
tp996
a(F5.767321614569468
F3.599802147325681
tp997
a(F5.066151028600341
F2.4585799226129446
tp998
a(F5.080337298948509
F2.4386185351296508
tp999
a(F5.101063249659283
F2.4492452646383516
tp1000
a(F5.109916886897023
F2.396997333633765
tp1001
a(F5.220742102782757
F2.2410560592240465
tp1002
a(F5.153216714495083
F2.141472248958813
tp1003
a(F5.316737434968862
F1.176488130937937
tp1004
a(F6.631524743365134
F-1.4937036763328493
tp1005
a(F6.068286185898717
F-3.1914986593972596
tp1006
a(F5.3856645486381955
F-3.798531910695747
tp1007
a(F5.459735874619799
F-4.201705906146278
tp1008
a(F4.718181149018196
F-4.633875886758704
tp1009
a(F4.628855204351765
F-5.005111432636298
tp1010
aa(lp1011
(F3.9730700090522078
F-6.242461302186312
tp1012
a(F3.4123911814144634
F-5.361526592216301
tp1013
a(F2.376932950118757
F-5.96498032030226
tp1014
a(F2.273658347847652
F-7.1985260374928
tp1015
a(F1.222351066564494
F-7.6842450054074884
tp1016
a(F0.43104228520639509
F-7.104242760781687
tp1017
a(F0.38418689492112534
F-7.191124997088067
tp1018
a(F-0.17392146244623419
F-6.798970214394708
tp1019
a(F-0.16365217128036669
F-6.6683520847843125
tp1020
a(F-1.1417955694452306
F-5.9514064627126775
tp1021
a(F-1.0648820883755743
F-5.032726621965092
tp1022
a(F-1.4924260533718972
F-1.0125069066092483
tp1023
a(F-1.8394258822683227
F-0.73772933377889238
tp1024
a(F-2.020942124803428
F3.3420787037888147
tp1025
a(F-0.66532684519712149
F3.9938811329903245
tp1026
a(F-0.78050710064564655
F4.674438041121526
tp1027
a(F0.88220850982511934
F6.470315283596509
tp1028
a(F2.5202567254746313
F6.381912697007582
tp1029
a(F2.5228977730719127
F6.3663077378066095
tp1030
a(F3.3907540971892303
F7.778826951759761
tp1031
a(F5.644381184881548
F3.605010799737693
tp1032
a(F4.953202143557966
F2.4800507700412293
tp1033
a(F4.976514938371987
F2.4472475230157524
tp1034
a(F4.984131623185225
F2.451152793774753
tp1035
a(F4.987385291266927
F2.4319519364457456
tp1036
a(F5.193575917391369
F2.1418227564373282
tp1037
a(F5.067944742400592
F1.956546797113985
tp1038
a(F5.183235494926586
F1.2761819796161458
tp1039
a(F6.465035253871952
F-1.327015657781506
tp1040
a(F5.908588190965986
F-3.0043387373524677
tp1041
a(F5.912449518983598
F-3.0271255756239004
tp1042
a(F5.898687944454409
F-3.0341814898338786
tp1043
a(F5.744641357048909
F-3.49853095559439
tp1044
a(F5.283192818272424
F-3.9088821538432095
tp1045
a(F5.343327457978871
F-4.23619805691545
tp1046
a(F4.594083737998961
F-4.67284909932505
tp1047
a(F4.180379625982262
F-6.392189123433824
tp1048
a(F3.9730700090522078
F-6.242461302186312
tp1049
aa(lp1050
(F5.795517892509537
F-3.025218046487499
tp1051
a(F5.656171643913968
F-3.09666446226554
tp1052
a(F5.420996528199097
F-3.805563251791522
tp1053
a(F5.180721087906648
F-4.019232396990676
tp1054
a(F5.22691904133794
F-4.270690207684627
tp1055
a(F4.469986326979724
F-4.711822311891392
tp1056
a(F4.068041496061356
F-6.382291169241526
tp1057
a(F2.967516554670997
F-5.587445256432194
tp1058
a(F2.225336969798869
F-6.0199793981908005
tp1059
a(F2.1110904311455645
F-7.384577521644998
tp1060
a(F1.335873253931025
F-7.74273892119966
tp1061
a(F0.44522733929584746
F-7.089925958896099
tp1062
a(F0.37656303367928778
F-7.217247669164016
tp1063
a(F-0.34640364857067496
F-6.7092552006232555
tp1064
a(F-0.33156839695917206
F-6.520561279446429
tp1065
a(F-1.2783388337329367
F-5.826610963955579
tp1066
a(F-1.2194273875750277
F-5.122953331744847
tp1067
a(F-1.6353563147871455
F-1.2119504635852119
tp1068
a(F-1.9169683663077564
F-0.98895128735303217
tp1069
a(F-2.113839273126011
F3.4359723270999734
tp1070
a(F-0.82078983677211248
F4.057692055678043
tp1071
a(F-0.9005797006478673
F4.529140420226611
tp1072
a(F1.0155137833431436
F6.598687768362584
tp1073
a(F2.351104480170518
F6.526608283097353
tp1074
a(F2.3822347535432726
F6.3426711793520845
tp1075
a(F3.267813667501306
F7.784035604171773
tp1076
a(F3.9561445237438804
F6.509216686077252
tp1077
a(F4.079898780510096
F6.586339706362843
tp1078
a(F4.028705140083463
F6.374831243990229
tp1079
a(F5.521440755193626
F3.610219452149705
tp1080
a(F4.840253258515586
F2.501521617469516
tp1081
a(F5.166409731999981
F2.0425894536506117
tp1082
a(F4.982672770306102
F1.7716213452691552
tp1083
a(F5.049733554884307
F1.3758758282943564
tp1084
a(F6.298545764378769
F-1.16032763923016
tp1085
a(F5.756419054457988
F-2.794484243190288
tp1086
a(F5.795517892509537
F-3.025218046487499
tp1087
aa(lp1088
(F-1.372027538757397
F-5.189946555720637
tp1089
a(F-1.3762367589007258
F-5.191890845221722
tp1090
a(F-1.778286576202392
F-1.4113940205611755
tp1091
a(F-1.9945108503471865
F-1.2401732409271702
tp1092
a(F-2.077136419100265
F0.61694133350112779
tp1093
a(F-2.283983713579895
F0.70658704476232082
tp1094
a(F-2.08376187573759
F0.76585688433005572
tp1095
a(F-2.2067364214485963
F3.529865950411132
tp1096
a(F-0.9762528283471017
F4.121502978365758
tp1097
a(F-1.020652300650088
F4.3838427993316955
tp1098
a(F1.1488190568611678
F6.727060253128656
tp1099
a(F2.1819522348664027
F6.671303869187124
tp1100
a(F2.2415717340146344
F6.319034620897559
tp1101
a(F3.1448732378133855
F7.789244256583785
tp1102
a(F3.818715491877306
F6.541258864818326
tp1103
a(F4.21973463852489
F6.791171947325356
tp1104
a(F4.053844344856411
F6.105789922449725
tp1105
a(F5.3985003255057045
F3.615428104561717
tp1106
a(F4.727304373473211
F2.5229924648978006
tp1107
a(F5.139243546608596
F1.9433561508638952
tp1108
a(F4.89740079821161
F1.5866958934243272
tp1109
a(F4.916231614842028
F1.4755696769725653
tp1110
a(F6.132056274885588
F-0.99363962067881495
tp1111
a(F5.604249917949989
F-2.5846297490281103
tp1112
a(F5.678586266035476
F-3.0233105173510975
tp1113
a(F5.413655343373531
F-3.1591474346972026
tp1114
a(F5.097351699349287
F-4.112595547988655
tp1115
a(F5.078249357540874
F-4.129582640138139
tp1116
a(F5.11051062469701
F-4.305182358453803
tp1117
a(F4.443943017288013
F-4.693650667029567
tp1118
a(F4.336689574534835
F-4.789027670209107
tp1119
a(F3.9557033661404475
F-6.372393215049226
tp1120
a(F2.8873753362316066
F-5.6008012808946965
tp1121
a(F2.073740989478983
F-6.07497847607934
tp1122
a(F1.9485225144434768
F-7.5706290057971914
tp1123
a(F1.4493954412975558
F-7.801232836991829
tp1124
a(F0.45941239338529982
F-7.075609157010508
tp1125
a(F0.36893917243744845
F-7.243370341239962
tp1126
a(F-0.51888583469511573
F-6.619540186851803
tp1127
a(F-0.49948462263797744
F-6.372770474108547
tp1128
a(F-1.4148820980206445
F-5.701815465198481
tp1129
a(F-1.372027538757397
F-5.189946555720637
tp1130
aa(lp1131
(F-1.5219907223854783
F-5.225442974466221
tp1132
a(F-1.5361154517819209
F-5.231967357163257
tp1133
a(F-1.9212168376176386
F-1.6108375775371382
tp1134
a(F-2.07205333438662
F-1.4913951945013064
tp1135
a(F-2.163811720377284
F0.57099104405553192
tp1136
a(F-2.458964991075222
F0.69890775164094165
tp1137
a(F-2.3777134740080754
F1.3192692976856506
tp1138
a(F-2.1994514215564447
F1.372038582813003
tp1139
a(F-2.2996335697711814
F3.623759573722289
tp1140
a(F-1.1317158199220927
F4.18531390105348
tp1141
a(F-1.1407249006523088
F4.238545178436784
tp1142
a(F1.2821243303791903
F6.855432737894731
tp1143
a(F2.0127999895622892
F6.815999455276891
tp1144
a(F2.1009087144859997
F6.295398062443034
tp1145
a(F3.021932808125463
F7.794452908995801
tp1146
a(F3.6812864600107336
F6.5733010435594
tp1147
a(F4.359570496539684
F6.996004188287872
tp1148
a(F4.07898354962936
F5.836748600909221
tp1149
a(F5.275559895817784
F3.620636756973729
tp1150
a(F4.614355488430834
F2.544463312326087
tp1151
a(F5.112077361217208
F1.8441228480771805
tp1152
a(F4.844586843376573
F1.449638260104006
tp1153
a(F5.965566785392407
F-0.82695160212747076
tp1154
a(F5.452080781441991
F-2.3747752548659307
tp1155
a(F5.561654639561415
F-3.021402988214696
tp1156
a(F5.43545093213954
F-3.0861108841506955
tp1157
a(F5.47356536853721
F-3.337629022799044
tp1158
a(F5.308690155885636
F-3.1511044036452134
tp1159
a(F5.171139042833095
F-3.2216304071288633
tp1160
a(F4.92500361498675
F-3.9635673519852155
tp1161
a(F4.994102208056082
F-4.339674509222977
tp1162
a(F4.6154880644921095
F-4.560326689614503
tp1163
a(F4.184855272592181
F-4.943274445023838
tp1164
a(F3.8433652362195403
F-6.362495260856926
tp1165
a(F2.8072341177922144
F-5.614157305357196
tp1166
a(F1.922145009159097
F-6.129977553967882
tp1167
a(F1.7859545977413909
F-7.756680489949386
tp1168
a(F1.5629176286640867
F-7.859726752784
tp1169
a(F0.47359744747475041
F-7.061292355124916
tp1170
a(F0.36131531119561089
F-7.269493013315908
tp1171
a(F-0.69136802081955473
F-6.5298251730803525
tp1172
a(F-0.66740084831678104
F-6.224979668770666
tp1173
a(F-1.5514253623083505
F-5.57701996644138
tp1174
a(F-1.5219907223854783
F-5.225442974466221
tp1175
aa(lp1176
(F-1.6638422526652121
F-5.164051145499925
tp1177
a(F-1.7299876798217149
F-4.952400764704038
tp1178
a(F-2.064147099032885
F-1.8102811345130991
tp1179
a(F-2.149595818426052
F-1.7426171480754427
tp1180
a(F-2.2058799943115304
F-0.47755882625042467
tp1181
a(F-2.3006410359118803
F0.41348452573015138
tp1182
a(F-2.2466336436477743
F0.43843119095184058
tp1183
a(F-2.250487021654301
F0.52504075460993782
tp1184
a(F-2.5731129611208328
F0.66486386366991823
tp1185
a(F-2.4045638462854235
F1.951749244251216
tp1186
a(F-2.3151409673752994
F1.9782202812959469
tp1187
a(F-2.3925307180937647
F3.717653197033446
tp1188
a(F-0.97951895398445998
F4.397052812980704
tp1189
a(F1.4154296038972145
F6.983805222660806
tp1190
a(F1.8436477442581758
F6.960695041366661
tp1191
a(F1.9602456949573615
F6.2717615039885075
tp1192
a(F2.8989923784375424
F7.7996615614078095
tp1193
a(F3.543857428144161
F6.605343222300476
tp1194
a(F4.238993216765585
F7.038548292800524
tp1195
a(F4.3541887957755865
F6.600864590739597
tp1196
a(F4.10412275440231
F5.567707279368719
tp1197
a(F5.152619466129863
F3.6258454093857413
tp1198
a(F4.501406603388457
F2.5659341597543737
tp1199
a(F5.084911175825822
F1.7448895452904658
tp1200
a(F4.812562977500283
F1.3432410395079373
tp1201
a(F5.7990772958992265
F-0.66026358357612658
tp1202
a(F5.299911644933995
F-2.1649207607037546
tp1203
a(F5.444723013087355
F-3.0194954590782963
tp1204
a(F5.334027187614564
F-3.076252063948063
tp1205
a(F5.439390169357402
F-3.7715450698291315
tp1206
a(F5.271901049068793
F-3.8598681334774616
tp1207
a(F4.88341843965893
F-3.420374715378334
tp1208
a(F4.7669580560130616
F-3.7714264188858646
tp1209
a(F4.877693791415153
F-4.374166659992152
tp1210
a(F4.492534599977729
F-4.598633222673918
tp1211
a(F4.45006204164967
F-4.726660140382916
tp1212
a(F4.033020970649528
F-5.097521219838567
tp1213
a(F3.731027106298633
F-6.352597306664628
tp1214
a(F2.7324393557492925
F-5.631374767988811
tp1215
a(F1.7691224882907761
F-6.202015699983764
tp1216
a(F1.628387546254304
F-7.883000000000003
tp1217
a(F0.487782501564201
F-7.046975553239327
tp1218
a(F0.35369144995377333
F-7.295615685391855
tp1219
a(F0.15667551052941775
F-7.1571824548333085
tp1220
a(F0.13679676357408077
F-7.16895804713599
tp1221
a(F0.13619169869933501
F-7.142789506455241
tp1222
a(F-0.86385020694399373
F-6.440110159308899
tp1223
a(F-0.83531707399558286
F-6.077188863432785
tp1224
a(F-1.6879686265960565
F-5.452224467684284
tp1225
a(F-1.6638422526652121
F-5.164051145499925
tp1226
aa(lp1227
(F-1.7706256079878209
F-4.683793534659273
tp1228
a(F-2.0011344312426047
F-3.946217525009285
tp1229
a(F-2.2070773604481335
F-2.009724691489062
tp1230
a(F-2.227138302465484
F-1.9938391016495816
tp1231
a(F-2.240352234715747
F-1.6968391954727533
tp1232
a(F-2.460519728793077
F0.37340801378861421
tp1233
a(F-2.3350391302725573
F0.43136901416057682
tp1234
a(F-2.33716232293132
F0.47909046516434195
tp1235
a(F-2.6872609311664455
F0.63081997569889658
tp1236
a(F-2.4314142185627716
F2.5842291908167887
tp1237
a(F-2.430830513194156
F2.5844019797788995
tp1238
a(F-2.485427866416348
F3.8115468203446063
tp1239
a(F-0.7222578435018896
F4.659308365467263
tp1240
a(F1.5487348774152387
F7.112177707426877
tp1241
a(F1.6744954989540624
F7.105390627456433
tp1242
a(F1.8195826754287232
F6.248124945533981
tp1243
a(F2.776051948749622
F7.804870213819825
tp1244
a(F3.406428396277585
F6.637385401041552
tp1245
a(F4.088696951023763
F7.062571677157379
tp1246
a(F4.332234511046408
F6.137254735503385
tp1247
a(F4.129261959175258
F5.298665957828213
tp1248
a(F5.02967903644194
F3.6310540617977534
tp1249
a(F4.388457718346081
F2.58740500718266
tp1250
a(F5.057744990434435
F1.6456562425037475
tp1251
a(F4.780539111623995
F1.236843818911865
tp1252
a(F5.632587806406044
F-0.49357556502478239
tp1253
a(F5.1477425084259965
F-1.955066266541576
tp1254
a(F5.327791386613295
F-3.017587929941895
tp1255
a(F5.232603443089586
F-3.066393243745427
tp1256
a(F5.334400282419068
F-3.738153184815987
tp1257
a(F4.7659815135295185
F-4.037900935696932
tp1258
a(F4.674065276073037
F-3.933915376497964
tp1259
a(F4.761285374774222
F-4.408658810761327
tp1260
a(F4.231304568016145
F-4.717525826335644
tp1261
a(F4.126417212799861
F-5.033692436580047
tp1262
a(F3.8811866687068743
F-5.251767994653298
tp1263
a(F3.618688976377726
F-6.342699352472327
tp1264
a(F2.729475088828396
F-5.700471268809858
tp1265
a(F1.6085287172840044
F-6.364487340553766
tp1266
a(F1.491844281966598
F-7.758204501242905
tp1267
a(F0.50196755565365336
F-7.032658751353737
tp1268
a(F0.34606758871193399
F-7.3217383574678
tp1269
a(F0.18436693927247561
F-7.208119411961547
tp1270
a(F-0.0032181090522946931
F-7.31923934603555
tp1271
a(F-0.0089277809961032517
F-7.072300895678691
tp1272
a(F-1.036332393068431
F-6.35039514553745
tp1273
a(F-1.0032332996743882
F-5.929398058094906
tp1274
a(F-1.8245118908837643
F-5.327428968927185
tp1275
a(F-1.7706256079878209
F-4.683793534659273
tp1276
aa(lp1277
(F-1.8774089633104296
F-4.20353592381862
tp1278
a(F-2.2722811826634928
F-2.940034285314531
tp1279
a(F-2.620398421674274
F0.33333150184707705
tp1280
a(F-2.423444616897342
F0.42430683736931307
tp1281
a(F-2.423837624208339
F0.43314017571874608
tp1282
a(F-2.8014089012120564
F0.59677608772787316
tp1283
a(F-2.525009503366089
F2.7071066263177013
tp1284
a(F-2.578325014738933
F3.9054404436557633
tp1285
a(F-0.46499673301932098
F4.921563917953822
tp1286
a(F1.5340157795583203
F7.080671017299867
tp1287
a(F1.6789196559000867
F6.224488387079457
tp1288
a(F2.6531115190616994
F7.810078866231834
tp1289
a(F3.2689993644110125
F6.669427579782628
tp1290
a(F3.938400685281941
F7.086595061514235
tp1291
a(F4.310280226317232
F5.673644880267172
tp1292
a(F4.154401163948206
F5.029624636287709
tp1293
a(F4.90673860675402
F3.6362627142097637
tp1294
a(F4.275508833303705
F2.6088758546109467
tp1295
a(F5.030578805043049
F1.5464229397170328
tp1296
a(F4.748515245747703
F1.1304465983157943
tp1297
a(F5.466098316912863
F-0.32688754647343643
tp1298
a(F4.995573371917999
F-1.7452117723793972
tp1299
a(F5.2108597601392335
F-3.0156804008054934
tp1300
a(F5.131179698564608
F-3.0565344235427947
tp1301
a(F5.229410395480733
F-3.704761299802846
tp1302
a(F4.5728306964288885
F-4.050999493959168
tp1303
a(F4.6448769581332945
F-4.4431509615305025
tp1304
a(F3.970074536054561
F-4.83641842999737
tp1305
a(F3.8027723839500513
F-5.340724732777177
tp1306
a(F3.7293523667642194
F-5.406014769468027
tp1307
a(F3.5063508464568205
F-6.332801398280029
tp1308
a(F2.7265108219074996
F-5.769567769630905
tp1309
a(F1.4479349462772344
F-6.5269589811237685
tp1310
a(F1.3553010176788902
F-7.633409002485804
tp1311
a(F0.56186010633083328
F-7.051843979575292
tp1312
a(F0.46814707436945113
F-7.1073568577413315
tp1313
a(F0.33844372747009643
F-7.347861029543749
tp1314
a(F0.21205836801553346
F-7.259056369089786
tp1315
a(F-0.056601621084602982
F-7.418202743194421
tp1316
a(F-0.14535020597748272
F-7.37795249661559
tp1317
a(F-0.15404726069154151
F-7.0018122849021385
tp1318
a(F-1.2088145791928717
F-6.260680131765997
tp1319
a(F-1.1711495253531918
F-5.781607252757025
tp1320
a(F-1.961055155171472
F-5.202633470170086
tp1321
a(F-1.8774089633104296
F-4.20353592381862
tp1322
aa(lp1323
(F-1.9841923186330384
F-3.7232783129779703
tp1324
a(F-2.3628647297416023
F-2.5116123905794936
tp1325
a(F-2.3822232705443493
F-2.4962830087978576
tp1326
a(F-2.3846414258987867
F-2.4419318966696224
tp1327
a(F-2.5434279340843826
F-1.9338510456197842
tp1328
a(F-2.780277114555469
F0.29325498990554166
tp1329
a(F-2.5447722082647353
F0.4020375437191035
tp1330
a(F-2.9155568712576674
F0.56273219975684974
tp1331
a(F-2.619046226695268
F2.826613644917238
tp1332
a(F-2.6712221630615165
F3.999334066966922
tp1333
a(F-0.20773562253675237
F5.1838194704403815
tp1334
a(F1.413943179556103
F6.935373396404955
tp1335
a(F1.5382566363714485
F6.200851828624931
tp1336
a(F2.5301710893737788
F7.815287518643849
tp1337
a(F3.131570332544438
F6.7014697585237
tp1338
a(F3.7881044195401223
F7.11061844587109
tp1339
a(F4.288325941588056
F5.210035025030962
tp1340
a(F4.179540368721153
F4.760583314747205
tp1341
a(F4.783798177066098
F3.6414713666217775
tp1342
a(F4.16255994826133
F2.6303467020392315
tp1343
a(F5.003412619651663
F1.4471896369303163
tp1344
a(F4.716491379871415
F1.0240493777197237
tp1345
a(F5.299608827419681
F-0.16019952792209224
tp1346
a(F4.84340423541
F-1.5353572782172167
tp1347
a(F5.093928133665174
F-3.013772871669092
tp1348
a(F5.02975595403963
F-3.0466756033401605
tp1349
a(F5.124420508542401
F-3.6713694147897042
tp1350
a(F4.44606070144918
F-4.029093046719486
tp1351
a(F4.528468541492367
F-4.477643112299678
tp1352
a(F3.725401860864304
F-4.945661587289444
tp1353
a(F3.3940127165359133
F-6.3229034440877285
tp1354
a(F2.7235465549866014
F-5.838664270451951
tp1355
a(F1.2873411752704627
F-6.689430621693769
tp1356
a(F1.2187577533911842
F-7.508613503728708
tp1357
a(F0.6313175618474105
F-7.078039955569623
tp1358
a(F0.42428079290164789
F-7.200682523949151
tp1359
a(F0.33081986622825887
F-7.373983701619696
tp1360
a(F0.23974979675859132
F-7.309993326218025
tp1361
a(F0.088020606730141893
F-7.399873291298572
tp1362
a(F-0.29232145769411666
F-7.227376322520358
tp1363
a(F-0.29916674038697799
F-6.931323674125591
tp1364
a(F-1.381296765317309
F-6.170965117994547
tp1365
a(F-1.3390657510319954
F-5.633816447419144
tp1366
a(F-2.0975984194591764
F-5.07783797141299
tp1367
a(F-1.9841923186330384
F-3.7232783129779703
tp1368
aa(lp1369
(F-2.1207570832524745
F-3.147726939752239
tp1370
a(F-2.3341818782773647
F-2.464815949829605
tp1371
a(F-2.4694493087796694
F-2.529854785788176
tp1372
a(F-2.4952768221404096
F-1.9493486276179892
tp1373
a(F-2.8145746855052725
F-0.9276678059250365
tp1374
a(F-2.940155807436664
F0.2531784779640045
tp1375
a(F-2.6757758693113303
F0.37529875689713421
tp1376
a(F-3.0297048413032783
F0.52868831178582631
tp1377
a(F-2.713082950024445
F2.9461206635167727
tp1378
a(F-2.7641193113841
F4.093227690278081
tp1379
a(F-2.5493139237791933
F4.196509702182748
tp1380
a(F-2.511965335394814
F4.481669030513494
tp1381
a(F-1.0660370339221625
F4.909693962150701
tp1382
a(F0.049525487945816238
F5.446075022926943
tp1383
a(F1.2938705795538823
F6.790075775510038
tp1384
a(F1.397593616842812
F6.1772152701704055
tp1385
a(F2.407230659685858
F7.820496171055858
tp1386
a(F2.9941413006778657
F6.733511937264776
tp1387
a(F3.637808153798302
F7.134641830227949
tp1388
a(F4.266371656858878
F4.746425169794751
tp1389
a(F4.204679573494103
F4.491541993206702
tp1390
a(F4.660857747378178
F3.6466800190337914
tp1391
a(F4.049611063218952
F2.651817549467518
tp1392
a(F4.976246434260278
F1.3479563341435998
tp1393
a(F4.684467513995126
F0.91765215712365134
tp1394
a(F5.133119337926501
F0.0064884906292501654
tp1395
a(F4.691235098902001
F-1.325502784055038
tp1396
a(F4.976996507191113
F-3.0118653425326922
tp1397
a(F4.928332209514653
F-3.0368167831375263
tp1398
a(F5.019430621604066
F-3.637977529776564
tp1399
a(F4.31929070646947
F-4.007186599479802
tp1400
a(F4.412060124851436
F-4.512135263068854
tp1401
a(F3.601304449845067
F-4.984634799855785
tp1402
a(F3.281674586615006
F-6.313005489895431
tp1403
a(F2.720582288065703
F-5.907760771272995
tp1404
a(F1.1267474042636927
F-6.85190226226377
tp1405
a(F1.0822144891034782
F-7.383818004971609
tp1406
a(F0.70077501736398595
F-7.1042359315639505
tp1407
a(F0.38041451143383931
F-7.294008190156966
tp1408
a(F0.32319600498642131
F-7.400106373695641
tp1409
a(F0.26744122550164739
F-7.360930283346262
tp1410
a(F0.23264283454488677
F-7.381543839402724
tp1411
a(F-0.43929270941075238
F-7.0768001484251295
tp1412
a(F-0.44428622008241625
F-6.860835063349039
tp1413
a(F-1.553778951441748
F-6.081250104223096
tp1414
a(F-1.5069819767107973
F-5.4860256420812625
tp1415
a(F-2.2341416837468824
F-4.9530424726558895
tp1416
a(F-2.110513797892999
F-3.4763904617379424
tp1417
a(F-2.1375007609025545
F-3.4721085669863534
tp1418
a(F-2.1207570832524745
F-3.147726939752239
tp1419
aa(lp1420
(F-2.2162154068922852
F-2.703706864463646
tp1421
a(F-2.334177817563372
F-2.3262538762311467
tp1422
a(F-2.5623464571022527
F-2.4359611624770174
tp1423
a(F-2.6059122183820325
F-1.456765358566349
tp1424
a(F-3.085721436926164
F0.07851543376972181
tp1425
a(F-3.100034500317861
F0.21310196602246734
tp1426
a(F-2.806779530357927
F0.3485599700751667
tp1427
a(F-3.143852811348893
F0.49464442381480467
tp1428
a(F-2.8071196733536237
F3.0656276821163093
tp1429
a(F-2.857016459706685
F4.187121313589238
tp1430
a(F-2.6470073946544623
F4.288097173639391
tp1431
a(F-2.5388157076721605
F5.1141489770790685
tp1432
a(F-0.96915122126334197
F5.578802399938427
tp1433
a(F-0.43977028238470517
F5.34937357944899
tp1434
a(F0.14572199215351667
F5.630888027215882
tp1435
a(F0.19728375174728541
F5.590057992235472
tp1436
a(F1.1737979795516615
F6.644778154615125
tp1437
a(F1.2569305973141738
F6.153578711715884
tp1438
a(F2.2842902299979357
F7.82570482346787
tp1439
a(F2.8567122688112914
F6.765554116005852
tp1440
a(F3.4875118880564777
F7.158665214584804
tp1441
a(F4.244417372129701
F4.282815314558537
tp1442
a(F4.229818778267052
F4.222500671666197
tp1443
a(F4.537917317690256
F3.6518886714458
tp1444
a(F3.936662178176576
F2.6732883968958063
tp1445
a(F4.949080248868891
F1.2487230313568851
tp1446
a(F4.652443648118837
F0.81125493652757896
tp1447
a(F4.966629848433318
F0.1731765091805979
tp1448
a(F4.539065962394003
F-1.1156482898928566
tp1449
a(F4.860064880717051
F-3.0099578133962925
tp1450
a(F4.826908464989673
F-3.026957962934894
tp1451
a(F4.914440734665731
F-3.6045856447634224
tp1452
a(F4.192520711489761
F-3.985280152240115
tp1453
a(F4.295651708210507
F-4.546627413838028
tp1454
a(F3.4772070388258296
F-5.0236080124221285
tp1455
a(F3.169336456694097
F-6.3031075357031305
tp1456
a(F2.7176180211448084
F-5.976857272094043
tp1457
a(F0.96615363325691916
F-7.014373902833776
tp1458
a(F0.94567122481577037
F-7.259022506214512
tp1459
a(F0.77023247288056318
F-7.13043190755828
tp1460
a(F0.37726506235963342
F-7.363214387506876
tp1461
a(F0.35500126773004403
F-7.3531170634233085
tp1462
a(F0.31557214374458198
F-7.426229045771587
tp1463
a(F-0.049692663051008168
F-7.16957576501777
tp1464
a(F-0.5862639611273881
F-6.926223974329898
tp1465
a(F-0.58940569977785451
F-6.790346452572489
tp1466
a(F-1.7262611375661887
F-5.991535090451644
tp1467
a(F-1.6748982023896026
F-5.338234836743382
tp1468
a(F-2.37068494803459
F-4.828246973898792
tp1469
a(F-2.253838680607114
F-3.432596837416094
tp1470
a(F-2.2162154068922852
F-2.703706864463646
tp1471
aa(lp1472
(F-2.3116737305320942
F-2.2596867891750554
tp1473
a(F-2.334173756849381
F-2.1876918026326893
tp1474
a(F-2.655243605424836
F-2.3420675391658587
tp1475
a(F-2.716547614623657
F-0.96418208951470952
tp1476
a(F-3.095661183129195
F0.24889543660415114
tp1477
a(F-2.937783191404524
F0.32182118325319919
tp1478
a(F-3.2580007813945038
F0.46060053584378124
tp1479
a(F-2.9011563966828007
F3.1851347007158477
tp1480
a(F-2.9499136080292683
F4.2810149369003945
tp1481
a(F-2.7447008655297296
F4.3796846450960345
tp1482
a(F-2.5656660799495086
F5.746628923644639
tp1483
a(F-1.961653594298685
F5.9254292158966155
tp1484
a(F-0.68268526349507219
F5.371136127442803
tp1485
a(F-0.20879306184427016
F5.598991399408572
tp1486
a(F-0.060631401946434238
F5.4816671303369695
tp1487
a(F0.2871083305823543
F5.671467551064971
tp1488
a(F1.0537253795494426
F6.499480533720206
tp1489
a(F1.1162675777855355
F6.129942153261355
tp1490
a(F2.1613498003100133
F7.830913475879882
tp1491
a(F2.719283236944717
F6.797596294746924
tp1492
a(F3.337215622314659
F7.18268859894166
tp1493
a(F4.122621297682084
F4.198552692262222
tp1494
a(F4.414976888002333
F3.6570973238578137
tp1495
a(F4.032585390361866
F3.0347185698413064
tp1496
a(F3.9181416378231084
F2.5618898761617803
tp1497
a(F4.9219140634775025
F1.1494897285701669
tp1498
a(F4.620419782242549
F0.70485771593150837
tp1499
a(F4.800140358940137
F0.33986452773194209
tp1500
a(F4.39969616813949
F-0.86721217027831976
tp1501
a(F4.5632470408784584
F-1.9464885540721655
tp1502
a(F4.7431332542429905
F-3.00805028425989
tp1503
a(F4.725484720464697
F-3.017099142732258
tp1504
a(F4.809450847727397
F-3.5711937597502814
tp1505
a(F4.06575071651005
F-3.963373705000432
tp1506
a(F4.179243291569577
F-4.581119564607204
tp1507
a(F3.3531096278065924
F-5.062581224988472
tp1508
a(F3.2446810210162695
F-5.5132067759509225
tp1509
a(F3.2810100957181962
F-5.741621884366279
tp1510
a(F3.2281724768304088
F-5.770928112140399
tp1511
a(F3.1876990608624816
F-5.7500218374860745
tp1512
a(F3.05699832677319
F-6.293209581510832
tp1513
a(F2.694960436547749
F-6.031730421425414
tp1514
a(F2.695550952139735
F-6.057269718014019
tp1515
a(F0.52188729017438007
F-7.344884935611031
tp1516
a(F0.39655876250912669
F-7.2880445460095835
tp1517
a(F0.30794828250274442
F-7.452351717847535
tp1518
a(F-0.51292437679168046
F-6.875565624116568
tp1519
a(F-0.73323521284402382
F-6.775647800234666
tp1520
a(F-0.73452517947329454
F-6.719857841795939
tp1521
a(F-1.8987433236906295
F-5.901820076680193
tp1522
a(F-1.842814428068408
F-5.190444031405498
tp1523
a(F-2.507228212322298
F-4.703451475141693
tp1524
a(F-2.326210959100811
F-2.541322040231881
tp1525
a(F-2.3116737305320942
F-2.2596867891750554
tp1526
aa(lp1527
(F-2.82718301086528
F-0.47159882046307899
tp1528
a(F-3.066474685806627
F0.29408032471489065
tp1529
a(F-3.3721487514401147
F0.42655664787275782
tp1530
a(F-2.9951931200119777
F3.3046417193153808
tp1531
a(F-3.0428107563518516
F4.374908560211553
tp1532
a(F-2.8423943364049986
F4.471272116552676
tp1533
a(F-2.6252096594093146
F6.129493733349335
tp1534
a(F-0.92560024460543566
F5.392898675436623
tp1535
a(F-0.56330811584205343
F5.567094771601264
tp1536
a(F-0.40023225925653882
F5.437960448387596
tp1537
a(F0.5814515000498659
F5.973774947303884
tp1538
a(F0.93365277954722181
F6.354182912825294
tp1539
a(F0.9628067391687587
F6.181923105425563
tp1540
a(F1.0519624191990964
F6.2305853202866395
tp1541
a(F2.0384093706220945
F7.836122128291898
tp1542
a(F2.5818542050781446
F6.829638473488
tp1543
a(F3.1869193565728384
F7.206711983298515
tp1544
a(F3.955970494209007
F4.284714872927317
tp1545
a(F4.292036458314413
F3.662305976269826
tp1546
a(F4.171443379345607
F3.4660292005184274
tp1547
a(F4.2005088026713455
F3.3555956040861137
tp1548
a(F3.960651478604248
F2.3646159945202356
tp1549
a(F4.894747878086116
F1.0502564257834521
tp1550
a(F4.588395916366259
F0.59846049533543777
tp1551
a(F4.633650869446956
F0.50655254628328628
tp1552
a(F4.261556915456415
F-0.6150667745875289
tp1553
a(F4.604382605490579
F-2.8773822536509623
tp1554
a(F4.626201627768931
F-3.0061427551234887
tp1555
a(F4.6240609759397175
F-3.007240322529624
tp1556
a(F4.704460960789062
F-3.5378018747371396
tp1557
a(F3.938980721530342
F-3.9414672577607472
tp1558
a(F4.062834874928649
F-4.615611715376378
tp1559
a(F3.229012216787357
F-5.101554437554814
tp1560
a(F3.136439683115574
F-5.4862826953890735
tp1561
a(F3.170531121475708
F-5.700628908524325
tp1562
a(F3.0716703693734715
F-5.755461729912089
tp1563
a(F2.9446601968522845
F-6.2833116273185325
tp1564
a(F2.550708985475783
F-5.998783309574731
tp1565
a(F2.5555360795133595
F-6.2075510169135795
tp1566
a(F0.66650951798912317
F-7.326555483715182
tp1567
a(F0.43811625728820935
F-7.222972028595861
tp1568
a(F0.30032442126090686
F-7.478474389923483
tp1569
a(F-2.0712255098150667
F-5.812105062908739
tp1570
a(F-2.01073065374721
F-5.042653226067617
tp1571
a(F-2.643771476610004
F-4.578655976384595
tp1572
a(F-2.4360982345959457
F-2.098138669825195
tp1573
a(F-2.748140753747421
F-2.248173915854702
tp1574
a(F-2.82718301086528
F-0.47159882046307899
tp1575
aa(lp1576
(F-2.937818407106901
F0.02098444858855153
tp1577
a(F-2.986193083024112
F0.1757724516130228
tp1578
a(F-3.4862967214857257
F0.3925127599017344
tp1579
a(F-3.0892298433411547
F3.4241487379149174
tp1580
a(F-3.135707904674435
F4.468802183522712
tp1581
a(F-2.940087807280266
F4.562859588009319
tp1582
a(F-2.7393576294549256
F6.095449845378312
tp1583
a(F-1.168515225715801
F5.414661223430436
tp1584
a(F-0.91782316983983847
F5.535198143793956
tp1585
a(F-0.73983311656664341
F5.394253766438217
tp1586
a(F0.99312024524503606
F6.340120017562175
tp1587
a(F1.915468940934172
F7.841330780703906
tp1588
a(F2.4444251732115703
F6.861680652229076
tp1589
a(F3.036623090831018
F7.23073536765537
tp1590
a(F3.7893196907359297
F4.370877053592412
tp1591
a(F4.169096028626493
F3.667514628681838
tp1592
a(F4.032818027289363
F3.4457091408626255
tp1593
a(F4.178554517942169
F2.891985748849905
tp1594
a(F4.00316131938539
F2.1673421128786874
tp1595
a(F4.867581692694731
F0.95102312299673564
tp1596
a(F4.264027392115889
F0.060924769210860319
tp1597
a(F4.123417662773342
F-0.36292137889673626
tp1598
a(F4.5994710738507285
F-3.5044099897239978
tp1599
a(F3.812210726550635
F-3.919560810521064
tp1600
a(F3.9464264582877213
F-4.650103866145554
tp1601
a(F3.1049148057681215
F-5.1405276501211565
tp1602
a(F3.0281983452148786
F-5.45935861482723
tp1603
a(F3.06005214723322
F-5.659635932682368
tp1604
a(F2.967680250465982
F-5.710869729805913
tp1605
a(F2.8323220669313773
F-6.2734136731262335
tp1606
a(F2.450560047788308
F-5.997688908362291
tp1607
a(F2.4077431316310545
F-6.021437183244904
tp1608
a(F2.4155212068869822
F-6.3578323158131385
tp1609
a(F0.81113174580386804
F-7.308226031819337
tp1610
a(F0.47967375206729201
F-7.157899511182138
tp1611
a(F0.2927005600190693
F-7.504597061999428
tp1612
a(F-2.243707695939504
F-5.72239004913729
tp1613
a(F-2.1786468794260134
F-4.894862420729739
tp1614
a(F-2.78031474089771
F-4.453860477627497
tp1615
a(F-2.577167830697295
F-2.027407162606371
tp1616
a(F-2.8410379020700027
F-2.154280292543544
tp1617
a(F-2.937818407106901
F0.02098444858855153
tp1618
aa(lp1619
(F0.52123124684637645
F-7.092826993768413
tp1620
a(F0.28507669877722996
F-7.530719734075375
tp1621
a(F-2.416189882063943
F-5.632675035365837
tp1622
a(F-2.346563105104817
F-4.747071615391859
tp1623
a(F-2.916858005185416
F-4.3290649788704005
tp1624
a(F-2.731589760104022
F-2.116160303124186
tp1625
a(F-2.6576338149682854
F-2.0819916009930246
tp1626
a(F-2.6494583667146845
F-1.9236055365158125
tp1627
a(F-2.933935050392586
F-2.0603866692323853
tp1628
a(F-3.03056473314747
F0.11148814959957676
tp1629
a(F-3.6004446915313366
F0.35846887193071275
tp1630
a(F-3.1832665666703335
F3.543655756514454
tp1631
a(F-3.2286050529970183
F4.5626958068338705
tp1632
a(F-3.037781278155533
F4.654447059465962
tp1633
a(F-2.8535055995005347
F6.061405957407292
tp1634
a(F-1.4114302068261662
F5.436423771424254
tp1635
a(F-1.2723382238376235
F5.503301515986646
tp1636
a(F-1.079433973876748
F5.350547084488838
tp1637
a(F0.93427807129097395
F6.449654714837717
tp1638
a(F1.7925285112462515
F7.846539433115918
tp1639
a(F2.3069961413449978
F6.89372283097015
tp1640
a(F2.8863268250891974
F7.254758752012229
tp1641
a(F3.6226688872628507
F4.457039234257508
tp1642
a(F4.046155598938571
F3.67272328109385
tp1643
a(F3.894192675233116
F3.4253890812068235
tp1644
a(F4.156600233212991
F2.4283758936136923
tp1645
a(F4.045671160166529
F1.970068231237141
tp1646
a(F4.832522919579441
F0.86289541723700935
tp1647
a(F4.8147239914784254
F0.81390097421871133
tp1648
a(F4.022256976432929
F-0.35479848636853006
tp1649
a(F4.494481186912395
F-3.4710181047108577
tp1650
a(F3.6854407315709246
F-3.8976543632813794
tp1651
a(F3.8300180416467917
F-4.684596016914728
tp1652
a(F2.9808173947488843
F-5.179500862687499
tp1653
a(F2.9199570073141814
F-5.432434534265381
tp1654
a(F2.949573172990732
F-5.618642956840413
tp1655
a(F2.8636901315584904
F-5.666277729699738
tp1656
a(F2.719983937010472
F-6.2635157189339346
tp1657
a(F2.3146773233915496
F-5.970786046798935
tp1658
a(F2.2637356306422802
F-5.999040704793264
tp1659
a(F2.2755063342606086
F-6.508113614712701
tp1660
a(F0.95575397361861292
F-7.289896579923486
tp1661
a(F0.52123124684637645
F-7.092826993768413
tp1662
aa(lp1663
(F0.56278874162545911
F-7.02775447635469
tp1664
a(F0.2774528375353924
F-7.55684240615132
tp1665
a(F-2.5886720681883837
F-5.5429600215943875
tp1666
a(F-2.5144793307836206
F-4.599280810053977
tp1667
a(F-3.053401269473122
F-4.2042694801133
tp1668
a(F-2.894157676806108
F-2.3022117872763825
tp1669
a(F-2.7847697013485675
F-2.2516729814605743
tp1670
a(F-2.7635143737102705
F-1.8398854452455424
tp1671
a(F-3.026832198715171
F-1.9664930459212275
tp1672
a(F-3.1172400344244906
F0.065537860153980887
tp1673
a(F-3.7145926615769476
F0.32442498395968933
tp1674
a(F-3.2773032899995105
F3.663162775113989
tp1675
a(F-3.3215022013196034
F4.656589430145029
tp1676
a(F-3.135474749030802
F4.7460345309226035
tp1677
a(F-2.9676535695461475
F6.027362069436268
tp1678
a(F-1.6543451879365314
F5.458186319418072
tp1679
a(F-1.6268532778354103
F5.471404888179338
tp1680
a(F-1.5567416871598194
F5.415885861630006
tp1681
a(F-1.3686217893429866
F5.334356431503313
tp1682
a(F0.87543589733691185
F6.559189412113259
tp1683
a(F1.6695880815583308
F7.85174808552793
tp1684
a(F2.1695671094784252
F6.925765009711224
tp1685
a(F2.736030559347377
F7.2787821363690846
tp1686
a(F3.45601808378977
F4.543201414922603
tp1687
a(F3.92321516925065
F3.677931933505862
tp1688
a(F3.7555673231768694
F3.4050690215510215
tp1689
a(F4.134645948483815
F1.9647660383774799
tp1690
a(F4.096607716710214
F1.8076096445996832
tp1691
a(F4.073619606196701
F1.7932835716241868
tp1692
a(F4.671787048269854
F0.95160695063329648
tp1693
a(F4.3527691386004825
F0.073458294241941502
tp1694
a(F3.9479090376974995
F-0.52361359967335019
tp1695
a(F4.389491299974061
F-3.437626219697716
tp1696
a(F3.558670736591216
F-3.8757479160416946
tp1697
a(F3.713609625005862
F-4.719088167683903
tp1698
a(F2.856719983729647
F-5.218474075253841
tp1699
a(F2.811715669413486
F-5.405510453703536
tp1700
a(F2.839094198748242
F-5.577649980998456
tp1701
a(F2.759700012650999
F-5.621685729593561
tp1702
a(F2.6076458070895647
F-6.2536177647416356
tp1703
a(F2.1787945989947897
F-5.943883185235577
tp1704
a(F2.119728129653506
F-5.976644226341622
tp1705
a(F2.1354914616342313
F-6.6583949136122635
tp1706
a(F1.1003762014333578
F-7.271567128027639
tp1707
a(F0.56278874162545911
F-7.02775447635469
tp1708
aa(lp1709
(F-1.526593768686059
F5.319305465309059
tp1710
a(F-1.5317607058266738
F5.386964744587068
tp1711
a(F0.74105715538413897
F6.627495365459406
tp1712
a(F0.77600580686033815
F6.602663391330784
tp1713
a(F1.5466476518704084
F7.856956737939942
tp1714
a(F2.032138077611849
F6.9578071884523
tp1715
a(F2.5857342936055545
F7.30280552072594
tp1716
a(F3.289367280316691
F4.629363595587698
tp1717
a(F3.800274739562729
F3.683140585917874
tp1718
a(F3.6169419711206245
F3.3847489618952196
tp1719
a(F4.0145239686239655
F1.874142721312575
tp1720
a(F3.9479497437085556
F1.8326540046185897
tp1721
a(F4.511051176960268
F1.0403184840295836
tp1722
a(F3.8908142857225396
F-0.66698438573482832
tp1723
a(F3.873561098962071
F-0.69242871297817032
tp1724
a(F4.284501413035725
F-3.404234334684573
tp1725
a(F3.4319007416115053
F-3.8538414688020115
tp1726
a(F3.5972012083649343
F-4.7535803184530785
tp1727
a(F2.7326225727104116
F-5.257447287820185
tp1728
a(F2.7034743315127887
F-5.378586373141688
tp1729
a(F2.7286152245057522
F-5.536657005156501
tp1730
a(F2.6557098937435075
F-5.577093729487384
tp1731
a(F2.4953076771686558
F-6.243719810549336
tp1732
a(F2.042911874598028
F-5.916980323672214
tp1733
a(F1.9757206286647318
F-5.954247747889984
tp1734
a(F1.995476589007854
F-6.808676212511825
tp1735
a(F1.2449984292481044
F-7.253237676131792
tp1736
a(F0.60434623640454177
F-6.962681958940966
tp1737
a(F0.26982897629355485
F-7.582965078227267
tp1738
a(F-2.7611542543128227
F-5.453245007822934
tp1739
a(F-2.682395556462426
F-4.451490004716097
tp1740
a(F-3.18994453376083
F-4.079473981356202
tp1741
a(F-3.056725593508194
F-2.4882632714285773
tp1742
a(F-2.9119055877288478
F-2.4213543619281213
tp1743
a(F-2.878382580858551
F-1.7719004160492755
tp1744
a(F-2.8922738880152483
F-1.763235045447641
tp1745
a(F-3.1197293470377545
F-1.8725994226100688
tp1746
a(F-3.2039153357015095
F0.019587570708386792
tp1747
a(F-3.8287406316225585
F0.2903810959886659
tp1748
a(F-3.3713400133286875
F3.7826697937135254
tp1749
a(F-3.4143993496421867
F4.750483053456186
tp1750
a(F-3.2331682199060694
F4.837622002379247
tp1751
a(F-3.08180153959176
F5.993318181465245
tp1752
a(F-1.526593768686059
F5.319305465309059
tp1753
aa(lp1754
(F-3.6478504903501943
F3.0005200456418137
tp1755
a(F-3.5880262046131985
F2.965738745569613
tp1756
a(F-3.4653767366578663
F3.902176812313062
tp1757
a(F-3.50729649796477
F4.844376676767343
tp1758
a(F-3.3308616907813366
F4.92920947383589
tp1759
a(F-3.1959495096373693
F5.9592742934942216
tp1760
a(F-1.6128675351992374
F5.27318115439709
tp1761
a(F-1.6283483777576162
F5.475897506775977
tp1762
a(F0.37732529852855201
F6.570617701198017
tp1763
a(F0.5533378551929804
F6.445555958647532
tp1764
a(F1.4237072221824878
F7.862165390351954
tp1765
a(F1.8947090457452767
F6.989849367193372
tp1766
a(F2.4354380278637358
F7.326828905082795
tp1767
a(F3.1227164768436104
F4.715525776252793
tp1768
a(F3.677334309874807
F3.688349238329886
tp1769
a(F3.478316619064376
F3.3644289022394176
tp1770
a(F3.864227702882147
F1.8981661056694321
tp1771
a(F3.822279881220414
F1.8720244376129926
tp1772
a(F4.350315305650682
F1.129030017425869
tp1773
a(F3.7486045860225854
F-0.52727655334099488
tp1774
a(F4.179511526097393
F-3.370842449671432
tp1775
a(F3.3051307466317965
F-3.831935021562325
tp1776
a(F3.4807927917240047
F-4.788072469222254
tp1777
a(F2.6085251616911744
F-5.296420500386525
tp1778
a(F2.5952329936120933
F-5.351662292579842
tp1779
a(F2.618136250263266
F-5.495664029314545
tp1780
a(F2.551719774836016
F-5.532501729381209
tp1781
a(F2.3829695472477503
F-6.233821856357038
tp1782
a(F1.907029150201268
F-5.890077462108855
tp1783
a(F1.8317131276759575
F-5.931851269438344
tp1784
a(F1.8554617163814786
F-6.958957511411387
tp1785
a(F1.3896206570628493
F-7.234908224235944
tp1786
a(F0.64590373118362443
F-6.8976094415272415
tp1787
a(F0.26220511505171729
F-7.609087750303216
tp1788
a(F-0.37942020684229938
F-7.158249780657323
tp1789
a(F-0.50189576450283901
F-7.226180483537495
tp1790
a(F-0.56072714425401493
F-7.195791524415645
tp1791
a(F-0.59026065953779039
F-7.0101027572015395
tp1792
a(F-2.93363644043726
F-5.363529994051484
tp1793
a(F-2.850311782141228
F-4.303699199378215
tp1794
a(F-3.326487798048536
F-3.954678482599105
tp1795
a(F-3.2192935102102798
F-2.6743147555807703
tp1796
a(F-3.03904147410913
F-2.59103574239567
tp1797
a(F-2.9962841927424684
F-1.762682689041287
tp1798
a(F-3.075948054274871
F-1.7129885259255584
tp1799
a(F-3.2126264953603396
F-1.778705799298912
tp1800
a(F-3.219535417297415
F-1.623419005918083
tp1801
a(F-3.242909655279261
F-1.6088382013646516
tp1802
a(F-3.2253432018880197
F-1.4928816726068597
tp1803
a(F-3.2905906369785267
F-0.026362718737209079
tp1804
a(F-3.9428886016681712
F0.25633720801764426
tp1805
a(F-3.5997142842287193
F2.876499363927227
tp1806
a(F-3.6478504903501943
F3.0005200456418137
tp1807
aa(lp1808
(F-3.953973955277224
F3.3660525967911514
tp1809
a(F-3.6671270427923535
F3.199282389424491
tp1810
a(F-3.559413459987045
F4.0216838309126
tp1811
a(F-3.600193646287355
F4.9382703000785035
tp1812
a(F-3.4285551616566057
F5.020796945292531
tp1813
a(F-3.310097479682982
F5.925230405523202
tp1814
a(F-1.6991413017124177
F5.227056843485123
tp1815
a(F-1.7249360496885604
F5.56483026896489
tp1816
a(F0.013593441672961504
F6.51374003693663
tp1817
a(F0.33066990352562087
F6.288448525964281
tp1818
a(F1.3007667924945654
F7.86737404276397
tp1819
a(F1.7572800138787024
F7.021891545934448
tp1820
a(F2.2851417621219134
F7.350852289439651
tp1821
a(F2.9560656733705333
F4.801687956917888
tp1822
a(F3.554393880186886
F3.693557890741898
tp1823
a(F3.3396912670081296
F3.344108842583614
tp1824
a(F3.7139314371403245
F1.9221894900262875
tp1825
a(F3.6966100187322724
F1.9113948706073938
tp1826
a(F4.189579434341095
F1.2177415508221579
tp1827
a(F3.621290437347673
F-0.34656629530776684
tp1828
a(F4.074521639159058
F-3.3374505646582913
tp1829
a(F3.1783607516520878
F-3.810028574322642
tp1830
a(F3.364384375083075
F-4.82256461999143
tp1831
a(F2.72089391467798
F-5.197583819784051
tp1832
a(F2.5128844349356356
F-5.217128714402341
tp1833
a(F2.486991655711396
F-5.324738212017995
tp1834
a(F2.507657276020776
F-5.454671053472586
tp1835
a(F2.4477296559285247
F-5.487909729275033
tp1836
a(F2.2706314173268414
F-6.223923902164736
tp1837
a(F1.771146425804508
F-5.863174600545495
tp1838
a(F1.6877056266871833
F-5.909454790986704
tp1839
a(F1.7154468437551014
F-7.109238810310948
tp1840
a(F1.5342428848775942
F-7.216578772340095
tp1841
a(F0.68746122596270887
F-6.832536924113518
tp1842
a(F0.25458125380987795
F-7.635210422379163
tp1843
a(F-0.48579872789549938
F-7.114982500679944
tp1844
a(F-0.66199547022106131
F-7.212709498458114
tp1845
a(F-0.70166277180858927
F-6.963305651346673
tp1846
a(F-3.1061186265617007
F-5.273814980280032
tp1847
a(F-3.018228007820033
F-4.155908394040335
tp1848
a(F-3.463031062336242
F-3.8298829838420048
tp1849
a(F-3.3818614269123675
F-2.8603662397329668
tp1850
a(F-3.16617736048941
F-2.7607171228632197
tp1851
a(F-3.114185804626384
F-1.7534649620332985
tp1852
a(F-3.2596222205344993
F-1.6627420064034757
tp1853
a(F-3.305523643682923
F-1.6848121759877524
tp1854
a(F-3.3078439024363497
F-1.632661414274879
tp1855
a(F-3.474341807151035
F-1.5288003425648036
tp1856
a(F-3.349213549058444
F-0.70282607588901591
tp1857
a(F-3.3772659382555457
F-0.07231300818280495
tp1858
a(F-4.057036571713784
F0.22229332004662084
tp1859
a(F-3.72316932577637
F2.7713952733339884
tp1860
a(F-3.953973955277224
F3.3660525967911514
tp1861
aa(lp1862
(F-4.151630314153209
F3.6685233509286466
tp1863
a(F-3.7462278809715084
F3.4328260332793707
tp1864
a(F-3.653450183316222
F4.141190849512135
tp1865
a(F-3.6930907946099385
F5.0321639233896605
tp1866
a(F-3.5262486325318747
F5.112384416749174
tp1867
a(F-3.424245449728595
F5.891186517552175
tp1868
a(F-1.7854150682255963
F5.180932532573152
tp1869
a(F-1.8215237216195028
F5.653763031153797
tp1870
a(F-0.350138415182629
F6.456862372675239
tp1871
a(F0.022777430096883933
F6.191895450319482
tp1872
a(F0.22730134411825276
F6.325512270119038
tp1873
a(F1.1778263628066448
F7.8725826951759785
tp1874
a(F1.619850982012128
F7.053933724675524
tp1875
a(F2.134845496380093
F7.374875673796506
tp1876
a(F2.7894148698974526
F4.8878501375829835
tp1877
a(F3.4314534504989638
F3.6987665431539103
tp1878
a(F3.201065914951883
F3.323788782927812
tp1879
a(F3.5574358453663972
F1.969767111371521
tp1880
a(F4.028843563031508
F1.306453084218445
tp1881
a(F3.493976288672762
F-0.16585603727453879
tp1882
a(F3.969531752220723
F-3.3040586796451503
tp1883
a(F3.0515907566723772
F-3.788122127082958
tp1884
a(F3.1905772073515877
F-4.544632448603908
tp1885
a(F2.5453924901805003
F-4.605255009277863
tp1886
a(F2.378750317810699
F-5.297814131456149
tp1887
a(F2.397178301778286
F-5.413678077630633
tp1888
a(F2.343739537021033
F-5.443317729168857
tp1889
a(F2.158293287405934
F-6.21402594797244
tp1890
a(F1.635263701407748
F-5.836271738982136
tp1891
a(F1.543698125698409
F-5.887058312535063
tp1892
a(F1.5729041202544085
F-7.150192711107749
tp1893
a(F0.72901872074179153
F-6.767464406699793
tp1894
a(F0.24695739256804039
F-7.661333094455109
tp1895
a(F-0.59217724894869939
F-7.071715220702566
tp1896
a(F-0.77247444446355118
F-7.1717165226161566
tp1897
a(F-0.81306488407938815
F-6.9165085454918085
tp1898
a(F-3.2786008126861397
F-5.1840999665085805
tp1899
a(F-3.186144233498837
F-4.008117588702452
tp1900
a(F-3.599574326623948
F-3.7050874850849063
tp1901
a(F-3.5444293436144534
F-3.0464177238851615
tp1902
a(F-3.293313246869692
F-2.9303985033307676
tp1903
a(F-3.2320874165103
F-1.74424723502531
tp1904
a(F-3.7057739590228103
F-1.4487624837649573
tp1905
a(F-3.5017331251611985
F-0.10188464266168573
tp1906
a(F-4.171184541759395
F0.18824943207559741
tp1907
a(F-3.846624367324022
F2.6662911827407516
tp1908
a(F-4.203934085414417
F3.5868829449787007
tp1909
a(F-4.151630314153209
F3.6685233509286466
tp1910
aa(lp1911
(F-4.123347708128012
F3.839635228993995
tp1912
a(F-3.825328719150665
F3.666369677134252
tp1913
a(F-3.747486906645401
F4.260697868111672
tp1914
a(F-3.7859879429325236
F5.126057546700819
tp1915
a(F-3.623942103407142
F5.2039718882058175
tp1916
a(F-3.5383934197742057
F5.857142629581151
tp1917
a(F-1.8716888347387748
F5.134808221661185
tp1918
a(F-1.918111393550447
F5.742695793342708
tp1919
a(F-0.71387027203821596
F6.39998470841385
tp1920
a(F-0.3186076712474879
F6.11913980418257
tp1921
a(F0.17081659318460751
F6.438883898945596
tp1922
a(F1.0548859331187224
F7.877791347587994
tp1923
a(F1.4824219501455538
F7.085975903416596
tp1924
a(F1.9845492306382706
F7.398899058153361
tp1925
a(F2.6227640664243737
F4.974012318248079
tp1926
a(F3.3085130208110414
F3.7039751955659224
tp1927
a(F3.0624405628956364
F3.30346872327201
tp1928
a(F3.3862405488950245
F2.0731960182128883
tp1929
a(F3.868107691721921
F1.395164617614732
tp1930
a(F3.3666621399978496
F0.014854220758689252
tp1931
a(F3.864541865282387
F-3.2706667946320085
tp1932
a(F2.9248207616926685
F-3.766215679843273
tp1933
a(F2.9599603722830814
F-3.9574823678978603
tp1934
a(F2.577900545425365
F-3.9933813041533837
tp1935
a(F2.2705089799100033
F-5.270890050894303
tp1936
a(F2.2866993275357963
F-5.372685101788675
tp1937
a(F2.2397494181135436
F-5.398725729062681
tp1938
a(F2.045955157485027
F-6.204127993780138
tp1939
a(F1.499380977010988
F-5.809368877418779
tp1940
a(F1.3996906247096348
F-5.8646618340834245
tp1941
a(F1.4259328685377728
F-6.9996165370125185
tp1942
a(F0.56224609382728374
F-6.607907692404666
tp1943
a(F0.51799558440929161
F-7.1707429145372465
tp1944
a(F0.23933353132620283
F-7.6874557665310554
tp1945
a(F-0.69855577000190117
F-7.028447940725188
tp1946
a(F-0.88295341870603927
F-7.130723546774202
tp1947
a(F-0.92446699635018703
F-6.869711439636938
tp1948
a(F-3.4510829988105804
F-5.094384952737129
tp1949
a(F-3.3540604591776404
F-3.860326783364571
tp1950
a(F-3.7361175909116557
F-3.5802919863278078
tp1951
a(F-3.706997260316541
F-3.2324692080373563
tp1952
a(F-3.4204491332499742
F-3.1000798837983172
tp1953
a(F-3.3499890283942193
F-1.7350295080173224
tp1954
a(F-3.937206110894582
F-1.368724624965111
tp1955
a(F-3.7421570541126528
F-0.08120169371767183
tp1956
a(F-4.285332511805006
F0.15420554410457577
tp1957
a(F-3.970079408871671
F2.561187092147513
tp1958
a(F-4.336904962405665
F3.5062959589495453
tp1959
a(F-4.123347708128012
F3.839635228993995
tp1960
aa(lp1961
(F-4.095065102102815
F4.010747107059341
tp1962
a(F-3.90442955732982
F3.8999133209891284
tp1963
a(F-3.841523629974578
F4.380204886711207
tp1964
a(F-3.878885091255107
F5.219951170011978
tp1965
a(F-3.753943601822126
F5.2800251213354805
tp1966
a(F-3.726514910212595
F5.258305256716675
tp1967
a(F-3.6525413898198185
F5.82309874161013
tp1968
a(F-2.058936445769179
F5.1324450444555865
tp1969
a(F-1.9659440012316658
F5.193197620817834
tp1970
a(F-2.0146990654813894
F5.831628555531621
tp1971
a(F-1.0776021288938047
F6.343107044152465
tp1972
a(F-0.65999277259185796
F6.046384158045658
tp1973
a(F0.011731035329537676
F6.485225744994395
tp1974
a(F0.044351955996502213
F6.438356566414441
tp1975
a(F0.93194550343080174
F7.883000000000003
tp1976
a(F1.3449929182789813
F7.1180180821576755
tp1977
a(F1.83425296489645
F7.42292244251022
tp1978
a(F2.4561132629512947
F5.060174498913174
tp1979
a(F3.1855725911231225
F3.7091838479779344
tp1980
a(F2.9238152108393933
F3.283148663616208
tp1981
a(F3.2150452524236535
F2.176624925054254
tp1982
a(F3.7073718204123356
F1.4838761510110174
tp1983
a(F3.2393479913229406
F0.19556447879191374
tp1984
a(F3.7595519783440547
F-3.2372749096188675
tp1985
a(F2.6649207518828266
F-3.8145134987259706
tp1986
a(F2.4583225297920954
F-4.01357206533439
tp1987
a(F2.162267642009308
F-5.243965970332456
tp1988
a(F2.176220353293308
F-5.331692125946718
tp1989
a(F2.135759299206052
F-5.354133728956506
tp1990
a(F1.9336170275641216
F-6.194230039587841
tp1991
a(F1.3634982526142299
F-5.782466015855418
tp1992
a(F1.2556831237208623
F-5.842265355631784
tp1993
a(F1.2789616168211389
F-6.849040362917288
tp1994
a(F0.39526243704174391
F-6.448255269492275
tp1995
a(F0.306716594254139
F-7.574495842759294
tp1996
a(F0.2317096700843635
F-7.713578438607
tp1997
a(F-0.80493429105510117
F-6.985180660747808
tp1998
a(F-0.99343239294852914
F-7.089730570932248
tp1999
a(F-1.035869108620986
F-6.822914333782072
tp2000
a(F-2.1493012840268886
F-6.04056132468228
tp2001
a(F-2.2855361727617236
F-6.108134555155003
tp2002
a(F-2.3157494175647386
F-5.923606559938834
tp2003
a(F-3.6235651849350177
F-5.004669938965676
tp2004
a(F-3.521976684856444
F-3.7125359780266916
tp2005
a(F-3.8726608551993635
F-3.455496487570711
tp2006
a(F-3.8695651770186252
F-3.418520692189551
tp2007
a(F-3.4992972028511407
F-3.247451603763773
tp2008
a(F-3.5460505535004536
F-3.2400334690631922
tp2009
a(F-3.467890640278135
F-1.7258117810093339
tp2010
a(F-4.168638262766358
F-1.2886867661652648
tp2011
a(F-3.982580983064109
F-0.060518744773656152
tp2012
a(F-4.399480481850617
F0.12016165613355412
tp2013
a(F-4.093534450419323
F2.4560830015542763
tp2014
a(F-4.469875839396909
F3.425708972920388
tp2015
a(F-4.095065102102815
F4.010747107059341
tp2016
aa(lp2017
(F-4.066782496077614
F4.181858985124684
tp2018
a(F-3.9835303955089714
F4.133456964844006
tp2019
a(F-3.935560353303755
F4.4997119053107415
tp2020
a(F-3.963760539069817
F5.133546888574177
tp2021
a(F-3.862994988429831
F5.0537540151372475
tp2022
a(F-3.7666893598654276
F5.789054853639106
tp2023
a(F-2.274072749014511
F5.142168569452405
tp2024
a(F-2.062403607978789
F5.28045341311104
tp2025
a(F-2.111286737412332
F5.920561317720528
tp2026
a(F-1.4413339857493899
F6.2862293798910756
tp2027
a(F-1.0013778739362262
F5.973628511908744
tp2028
a(F-0.23346015725313762
F6.475314212878708
tp2029
a(F-0.12506443575942861
F6.319573101833463
tp2030
a(F0.8100593893385799
F6.902337490042051
tp2031
a(F1.005950602281212
F7.523456900637708
tp2032
a(F1.2075638864124088
F7.150060260898748
tp2033
a(F1.6839566991546313
F7.446945826867072
tp2034
a(F2.289462459478216
F5.146336679578269
tp2035
a(F3.0626321614352
F3.7143925003899465
tp2036
a(F2.7922074298180792
F3.274250372341486
tp2037
a(F2.7941886877603146
F3.228637701715817
tp2038
a(F3.0438499559522825
F2.2800538318956214
tp2039
a(F3.5466359491027504
F1.5725876844073046
tp2040
a(F3.11203384264803
F0.37627473682514001
tp2041
a(F3.6545620914057224
F-3.2038830246057266
tp2042
a(F2.6733414906856083
F-3.721316093817155
tp2043
a(F2.335631126599477
F-4.046701957855567
tp2044
a(F2.0540263041086124
F-5.217041889770608
tp2045
a(F2.06574137905082
F-5.290699150104762
tp2046
a(F2.0317691802985625
F-5.309541728850331
tp2047
a(F1.8212788976432144
F-6.184332085395542
tp2048
a(F1.2276155282174717
F-5.755563154292058
tp2049
a(F1.1116756227320899
F-5.819868877180143
tp2050
a(F1.131990365104505
F-6.698464188822059
tp2051
a(F0.24934594503851493
F-6.2981574617687155
tp2052
a(F0.22653278170679414
F-6.310810714790343
tp2053
a(F0.11994540419697941
F-7.666526865548878
tp2054
a(F-0.91131281210830117
F-6.941913380770428
tp2055
a(F-1.1039113671910172
F-7.04873759509029
tp2056
a(F-1.147271220891783
F-6.776117227927207
tp2057
a(F-2.2343986782867127
F-6.012247226363914
tp2058
a(F-2.40446347401873
F-6.096600270903506
tp2059
a(F-2.442179284950445
F-5.8662502034229425
tp2060
a(F-3.796047371059455
F-4.914954925194227
tp2061
a(F-3.689892910535246
F-3.564745172688812
tp2062
a(F-3.7888843931595666
F-3.4921878051054493
tp2063
a(F-3.680242086566004
F-3.4419935089467746
tp2064
a(F-3.662850574862837
F-3.220785765094389
tp2065
a(F-3.663429702883608
F-3.2206938775695964
tp2066
a(F-3.585792252162051
F-1.7165940540013462
tp2067
a(F-4.4000704146381295
F-1.2086489073654185
tp2068
a(F-4.223004912015561
F-0.039835795829642251
tp2069
a(F-4.513628451896228
F0.086117768162530695
tp2070
a(F-4.21698949196697
F2.3509789109610413
tp2071
a(F-4.60284671638815
F3.3451219868912307
tp2072
a(F-4.066782496077614
F4.181858985124684
tp2073
aa(lp2074
(F-4.631502566509901
F-1.1286110485655714
tp2075
a(F-4.463428840967019
F-0.019152846885626573
tp2076
a(F-4.627776421941842
F0.052073880191507271
tp2077
a(F-4.340444533514624
F2.2458748203678027
tp2078
a(F-4.735817593379398
F3.2645350008620735
tp2079
a(F-4.071142019705341
F4.3020201066446475
tp2080
a(F-4.029597076632932
F4.61921892391028
tp2081
a(F-4.041303023109251
F4.882324935000037
tp2082
a(F-3.9994750666470686
F4.849202773557813
tp2083
a(F-3.8808373299110404
F5.755010965668085
tp2084
a(F-2.489209052259845
F5.151892094449229
tp2085
a(F-2.1588632147259137
F5.36770920540425
tp2086
a(F-2.207874409343276
F6.009494079909441
tp2087
a(F-1.8050658426049822
F6.2293517156296865
tp2088
a(F-1.3427629752805999
F5.900872865771834
tp2089
a(F-0.47865134983581825
F6.46540268076302
tp2090
a(F-0.35802097321514026
F6.2920830273503086
tp2091
a(F1.533660433412809
F7.470969211223931
tp2092
a(F2.122811656005135
F5.232498860243366
tp2093
a(F2.9396917317472777
F3.7196011528019586
tp2094
a(F2.6666788153682184
F3.275246506386223
tp2095
a(F2.672357651186166
F3.144507917442489
tp2096
a(F2.872654659480908
F2.3834827387369906
tp2097
a(F3.3859000777931634
F1.6612992178035917
tp2098
a(F2.9847196939731173
F0.55698499485836805
tp2099
a(F3.5495722044673865
F-3.1704911395925848
tp2100
a(F2.6817622294883883
F-3.628118688908337
tp2101
a(F2.2129397234068584
F-4.0798318503767454
tp2102
a(F1.9457849662079152
F-5.190117809208762
tp2103
a(F1.9552624048083303
F-5.249706174262807
tp2104
a(F1.9277790613910693
F-5.264949728744151
tp2105
a(F1.7089407677223054
F-6.174434131203242
tp2106
a(F1.09173280382071
F-5.728660292728698
tp2107
a(F0.96766812174331385
F-5.7974723987285035
tp2108
a(F0.98501911338786918
F-6.5478880147268255
tp2109
a(F0.37176183138942065
F-6.269756742588863
tp2110
a(F0.36530091038569523
F-6.296341434852907
tp2111
a(F0.34662374089763937
F-6.2583558358359666
tp2112
a(F0.23114511996363163
F-6.205982685629833
tp2113
a(F0.047218343298368382
F-6.307997123906448
tp2114
a(F-0.052536781927461362
F-7.576811851777424
tp2115
a(F-1.017691333161503
F-6.898646100793049
tp2116
a(F-1.2143903414335053
F-7.007744619248334
tp2117
a(F-1.2586733331625837
F-6.729320122072339
tp2118
a(F-2.319496072546535
F-5.983933128045545
tp2119
a(F-2.523390775275738
F-6.085065986652011
tp2120
a(F-2.568609152336151
F-5.808893846907048
tp2121
a(F-3.9685295571838957
F-4.825239911422774
tp2122
a(F-3.814062440323756
F-2.8605272974069686
tp2123
a(F-3.7578346399408105
F-2.7562661438851173
tp2124
a(F-3.7036938640459685
F-1.7073763269933568
tp2125
a(F-4.631502566509901
F-1.1286110485655714
tp2126
aa(lp2127
(F-4.862934718381673
F-1.048573189765725
tp2128
a(F-4.703852769918477
F0.0015301020583873282
tp2129
a(F-4.741924391987453
F0.018029992220483848
tp2130
a(F-4.463899575062275
F2.140770729774566
tp2131
a(F-4.868788470370642
F3.183948014832918
tp2132
a(F-4.1881154906400795
F4.246403303321372
tp2133
a(F-3.9949852999566513
F5.720967077697061
tp2134
a(F-2.7043453555051773
F5.161615619446049
tp2135
a(F-2.2553228214730368
F5.454964997697456
tp2136
a(F-2.3044620812742185
F6.098426842098352
tp2137
a(F-2.1687976994605656
F6.172474051368297
tp2138
a(F-1.6841480766249681
F5.8281172196349225
tp2139
a(F-0.72384254241849177
F6.455491148647331
tp2140
a(F-0.59097751067084836
F6.2645929528671545
tp2141
a(F-0.55660439078043922
F6.2860141054954255
tp2142
a(F-0.55197761530143907
F6.333879063395539
tp2143
a(F-0.52938481358613387
F6.302977206878575
tp2144
a(F1.3833641676709885
F7.494992595580786
tp2145
a(F2.2365612359208527
F4.253284410002742
tp2146
a(F2.3452784797735244
F4.597998138653413
tp2147
a(F2.816751302059359
F3.7248098052139706
tp2148
a(F2.5411502009183558
F3.276242640430958
tp2149
a(F2.5505266146120213
F3.060378133169161
tp2150
a(F2.7014593630095387
F2.486911645578356
tp2151
a(F3.2251642064835764
F1.750010751199877
tp2152
a(F2.8574055452982066
F0.73769525289159432
tp2153
a(F3.4445823175290524
F-3.1370992545794447
tp2154
a(F2.690182968291168
F-3.5349212839995197
tp2155
a(F2.09024832021424
F-4.112961742897921
tp2156
a(F1.8375436283072197
F-5.163193728646915
tp2157
a(F1.8447834305658422
F-5.208713198420852
tp2158
a(F1.8237889424835796
F-5.2203577286379765
tp2159
a(F1.5966026378014
F-6.164536177010943
tp2160
a(F0.95585007942395173
F-5.701757431165342
tp2161
a(F0.82366062075454316
F-5.775075920276864
tp2162
a(F0.83804786167123524
F-6.3973118406315965
tp2163
a(F0.29885488155751005
F-6.152771035509499
tp2164
a(F0.16941423039567738
F-6.685379293002636
tp2165
a(F-0.042074696926219346
F-6.255253432929983
tp2166
a(F-0.13209609511005382
F-6.305183533022551
tp2167
a(F-0.22501896805190036
F-7.487096838005974
tp2168
a(F-1.124069854214703
F-6.8553788208156705
tp2169
a(F-1.3248693156759952
F-6.966751643406378
tp2170
a(F-1.3700754454333808
F-6.682523016217473
tp2171
a(F-2.404593466806359
F-5.955619029727177
tp2172
a(F-2.642318076532744
F-6.0735317024005155
tp2173
a(F-2.6950390197218574
F-5.751537490391154
tp2174
a(F-4.141011743308333
F-4.735524897651324
tp2175
a(F-4.025341430478907
F-3.264280225629016
tp2176
a(F-3.8894255494132928
F-3.0122563789672503
tp2177
a(F-3.8215954759298825
F-1.6981585999853692
tp2178
a(F-4.862934718381673
F-1.048573189765725
tp2179
aa(lp2180
(F-5.094366870253449
F-0.96853533096587974
tp2181
a(F-4.819609495843256
F0.84514388347898084
tp2182
a(F-4.644552672203655
F1.5989551108346731
tp2183
a(F-4.587354616609925
F2.0356666391813274
tp2184
a(F-5.001759347361887
F3.103361028803759
tp2185
a(F-4.305088961574825
F4.190786499998094
tp2186
a(F-4.109133270002264
F5.686923189726038
tp2187
a(F-2.919481658750513
F5.171339144442872
tp2188
a(F-2.3517824282201616
F5.542220789990662
tp2189
a(F-2.387711456628864
F6.012699160664869
tp2190
a(F-2.02553317796934
F5.755361573498007
tp2191
a(F-0.9690337350011724
F6.445579616531642
tp2192
a(F-0.82393404812655824
F6.237102878384
tp2193
a(F-0.80030423084144253
F6.2518288597396765
tp2194
a(F-0.77292742279453641
F6.5350476522989
tp2195
a(F-0.63924494811876365
F6.3522001815283815
tp2196
a(F1.2330679019291662
F7.519015979937642
tp2197
a(F2.1405597478423495
F4.071015682331648
tp2198
a(F2.378996397215067
F4.120426659509349
tp2199
a(F2.428695578037873
F2.976248348895833
tp2200
a(F2.530264066538166
F2.5903405524197236
tp2201
a(F3.064428335173991
F1.838722284596166
tp2202
a(F2.730091396623296
F0.91840551092482237
tp2203
a(F3.3395924305907165
F-3.103707369566301
tp2204
a(F2.698603707093948
F-3.441723879090702
tp2205
a(F1.9675569170216214
F-4.146091635419097
tp2206
a(F1.7293022904065225
F-5.136269648085069
tp2207
a(F1.7343044563233523
F-5.167720222578895
tp2208
a(F1.7197988235760882
F-5.1757657285318
tp2209
a(F1.484264507880491
F-6.154638222818642
tp2210
a(F0.81996735502719176
F-5.674854569601981
tp2211
a(F0.67965311976576714
F-5.752679441825224
tp2212
a(F0.69107660995459952
F-6.246735666536365
tp2213
a(F0.22594793172560124
F-6.035785328430134
tp2214
a(F-0.026472449594344027
F-7.07441715115237
tp2215
a(F-0.32446139527059259
F-6.468367684760902
tp2216
a(F-0.39750115417633936
F-7.397381824234523
tp2217
a(F-1.230448375267903
F-6.812111540838291
tp2218
a(F-1.435348289918485
F-6.925758667564421
tp2219
a(F-1.4814775577041797
F-6.6357259103626065
tp2220
a(F-2.4896908610661814
F-5.927304931408808
tp2221
a(F-2.761245377789752
F-6.061997418149019
tp2222
a(F-2.8214688871075655
F-5.694181133875261
tp2223
a(F-4.313493929432774
F-4.645809883879872
tp2224
a(F-4.236620420634061
F-3.6680331538510673
tp2225
a(F-3.9681402066913414
F-3.1702001137389058
tp2226
a(F-4.0155671510330855
F-3.162675103088805
tp2227
a(F-3.939497087813802
F-1.6889408729773807
tp2228
a(F-5.094366870253449
F-0.96853533096587974
tp2229
aa(lp2230
(F-2.4482420349672864
F5.629476582283868
tp2231
a(F-2.4571980203831387
F5.746752156182005
tp2232
a(F-2.36691827931371
F5.682605927361097
tp2233
a(F-1.2142249275838477
F6.435668084415958
tp2234
a(F-1.0568905855822663
F6.209612803900846
tp2235
a(F-1.0440040709024423
F6.217643613983931
tp2236
a(F-0.9938772302876302
F6.736216241202261
tp2237
a(F-0.74910508265138986
F6.401423156178186
tp2238
a(F1.0827716361873456
F7.543039364294497
tp2239
a(F2.014078413596902
F4.004554627344223
tp2240
a(F2.2563632528826147
F4.054763060888078
tp2241
a(F2.3068645414637263
F2.8921185646225087
tp2242
a(F2.359068770066795
F2.6937694592610892
tp2243
a(F2.903692463864406
F1.9274338179924513
tp2244
a(F2.602777247948385
F1.0991157689580469
tp2245
a(F3.234602543652384
F-3.070315484553161
tp2246
a(F2.707024445896728
F-3.348526474181888
tp2247
a(F1.8448655138290029
F-4.179221527940274
tp2248
a(F1.621060952505827
F-5.109345567523223
tp2249
a(F1.6238254820808642
F-5.12672724673694
tp2250
a(F1.6158087046685967
F-5.131173728425624
tp2251
a(F1.3719263779595856
F-6.144740268626344
tp2252
a(F0.68408463063043179
F-5.647951708038624
tp2253
a(F0.53564561877699468
F-5.730282963373583
tp2254
a(F0.54410535823796558
F-6.096159492441134
tp2255
a(F0.17654264473898174
F-5.929458357213178
tp2256
a(F0.14638548424035669
F-5.9461849363663815
tp2257
a(F-0.19935760999896246
F-7.36881086809828
tp2258
a(F-0.29865613088181142
F-7.308282283620434
tp2259
a(F-0.53262104428397983
F-6.83244479709916
tp2260
a(F-0.56998334030077658
F-7.307666810463071
tp2261
a(F-1.336826896321103
F-6.768844260860912
tp2262
a(F-1.5458272641609732
F-6.884765691722466
tp2263
a(F-1.5928796699749785
F-6.588928804507739
tp2264
a(F-2.5747882553260055
F-5.898990833090445
tp2265
a(F-2.8801726790467583
F-6.050463133897522
tp2266
a(F-2.9478987544932718
F-5.636824777359366
tp2267
a(F-4.485976115557211
F-4.556094870108422
tp2268
a(F-4.447899410789212
F-4.071786082073113
tp2269
a(F-3.9618301880232387
F-3.170485701978187
tp2270
a(F-4.13294630041624
F-3.1433355115952084
tp2271
a(F-4.057398699697718
F-1.6797231459693922
tp2272
a(F-5.2856782600285825
F-0.91352472615053593
tp2273
a(F-4.821548841604972
F1.0850604148324408
tp2274
a(F-4.710809658157576
F1.9305625485880906
tp2275
a(F-5.134730224353131
F3.0227740427746035
tp2276
a(F-4.422062432509563
F4.13516969667482
tp2277
a(F-4.223281240047875
F5.652879301755018
tp2278
a(F-3.1346179619958434
F5.181062669439694
tp2279
a(F-2.4482420349672864
F5.629476582283868
tp2280
aa(lp2281
(F-1.289847123037978
F6.18212272941769
tp2282
a(F-1.2877039109634474
F6.183458368228182
tp2283
a(F-1.260719188326096
F6.462620955400581
tp2284
a(F-1.076847409399905
F6.748659822370101
tp2285
a(F-0.85896521718401964
F6.4506461308279945
tp2286
a(F0.93247537044552509
F7.567062748651352
tp2287
a(F1.8875970793514547
F3.938093572356795
tp2288
a(F2.1337301085501625
F3.9890994622668003
tp2289
a(F2.1850335048895797
F2.8079887803491843
tp2290
a(F2.1878734735954204
F2.7971983661024566
tp2291
a(F2.742956592554817
F2.0161453513887384
tp2292
a(F2.4754630992734725
F1.2798260269912767
tp2293
a(F3.1296126567140483
F-3.0369235995400183
tp2294
a(F2.715445184699508
F-3.2553290692730705
tp2295
a(F1.7221741106363826
F-4.2123514204614505
tp2296
a(F1.512819614605128
F-5.082421486961374
tp2297
a(F1.5133465078383743
F-5.085734270894982
tp2298
a(F1.5118185857611053
F-5.086581728319451
tp2299
a(F1.2595882480386784
F-6.134842314434045
tp2300
a(F0.54820190623367182
F-5.6210488464752615
tp2301
a(F0.39163811778821866
F-5.707886484921943
tp2302
a(F0.39713410652132808
F-5.945583318345902
tp2303
a(F0.15834181966410021
F-5.837283581074293
tp2304
a(F0.057986163194534868
F-5.892945546712151
tp2305
a(F-0.29155997315013238
F-7.331219820836652
tp2306
a(F-0.73034244694257566
F-7.0637547891703925
tp2307
a(F-0.74246552642521735
F-7.21795179669162
tp2308
a(F-1.4432054173743047
F-6.725576980883534
tp2309
a(F-1.656306238403463
F-6.843772715880511
tp2310
a(F-1.7042817822457792
F-6.542131698652872
tp2311
a(F-2.6598856495858296
F-5.870676734772077
tp2312
a(F-2.999099980303768
F-6.038928849646027
tp2313
a(F-3.07432862187898
F-5.579468420843472
tp2314
a(F-4.655398401229377
F-4.4685298950903505
tp2315
a(F-3.955520169355136
F-3.1707712902174716
tp2316
a(F-4.250325449799398
F-3.1239959201016116
tp2317
a(F-4.175300311581633
F-1.6705054189614037
tp2318
a(F-5.349086661597699
F-0.93829975859448211
tp2319
a(F-4.998545011006289
F0.57116571883020129
tp2320
a(F-4.834264699705226
F1.825458457994852
tp2321
a(F-5.267701101344375
F2.9421870567454445
tp2322
a(F-4.539035903444308
F4.0795528933515435
tp2323
a(F-4.337429210093486
F5.618835413783991
tp2324
a(F-3.3446867606909514
F5.188589984663176
tp2325
a(F-3.344825736126742
F5.194006034960845
tp2326
a(F-1.4594161201665266
F6.425756552300269
tp2327
a(F-1.289847123037978
F6.18212272941769
tp2328
aa(lp2329
(F-1.5228036604936879
F6.154632654934538
tp2330
a(F-1.5019343866496175
F6.167638279727406
tp2331
a(F-1.1388648914672555
F6.732444840253727
tp2332
a(F-0.96882535171664763
F6.499869105477801
tp2333
a(F0.78217910470370455
F7.591086133008211
tp2334
a(F1.7611157451060073
F3.871632517369367
tp2335
a(F2.0110969642177086
F3.923435863645528
tp2336
a(F2.058053062708934
F2.8424090025339925
tp2337
a(F2.582220721245232
F2.1048568847850255
tp2338
a(F2.3481489505985635
F1.4605362850245047
tp2339
a(F3.024622769775716
F-3.0035317145268774
tp2340
a(F2.7238659235022897
F-3.1621316643642503
tp2341
a(F1.5994827074437659
F-4.245481312982626
tp2342
a(F1.1472501181177712
F-6.124944360241748
tp2343
a(F0.41231918183691185
F-5.594145984911902
tp2344
a(F0.24763061679944798
F-5.685490006470305
tp2345
a(F0.25016285480469413
F-5.795007144250673
tp2346
a(F0.14014099458921514
F-5.745108804935406
tp2347
a(F-0.030413157851286954
F-5.839706157057918
tp2348
a(F-0.38376233630130052
F-7.2936287735750245
tp2349
a(F-0.90306384742864942
F-6.977082413102761
tp2350
a(F-0.91494771254965634
F-7.128236782920169
tp2351
a(F-1.549583938427503
F-6.682309700906153
tp2352
a(F-1.7667852126459511
F-6.802779740038552
tp2353
a(F-1.8156838945165763
F-6.495334592798005
tp2354
a(F-2.744983043845652
F-5.842362636453709
tp2355
a(F-3.1180272815607744
F-6.02739456539453
tp2356
a(F-3.200758489264686
F-5.52211206432758
tp2357
a(F-4.6630222624712125
F-4.4946525671662965
tp2358
a(F-3.9492101506870316
F-3.1710568784567528
tp2359
a(F-4.367704599182559
F-3.104656328608015
tp2360
a(F-4.293201923465549
F-1.661287691953416
tp2361
a(F-5.412495063166816
F-0.96307479103843008
tp2362
a(F-5.175541180407606
F0.057271022827965368
tp2363
a(F-4.957719741252877
F1.7203543674016153
tp2364
a(F-5.400671978335623
F2.861600070716289
tp2365
a(F-4.65600937437905
F4.023936090028267
tp2366
a(F-4.451577180139097
F5.584791525812969
tp2367
a(F-3.407340750487954
F5.13222908018648
tp2368
a(F-3.411661526996017
F5.300615261236899
tp2369
a(F-1.7046073127492036
F6.415845020184582
tp2370
a(F-1.5228036604936879
F6.154632654934538
tp2371
aa(lp2372
(F-5.383614487953146
F-0.15961550497801014
tp2373
a(F-5.306483658679298
F-0.10500021971146012
tp2374
a(F-5.081174782800527
F1.6152502768083785
tp2375
a(F-5.5336428553268675
F2.7810130846871317
tp2376
a(F-4.772982845313791
F3.9683192867049897
tp2377
a(F-4.565725150184711
F5.550747637841948
tp2378
a(F-3.9344588113996473
F5.277162623940747
tp2379
a(F-3.868804253901228
F5.379642131582109
tp2380
a(F-3.471867882103874
F5.148866905652126
tp2381
a(F-3.4784973178652923
F5.407224487512952
tp2382
a(F-1.9497985053318825
F6.405933488068895
tp2383
a(F-1.7557601979493978
F6.12714258045138
tp2384
a(F-1.46179793614205
F6.310338359513711
tp2385
a(F-1.200882373534606
F6.716229858137357
tp2386
a(F-1.0786854862492756
F6.549092080127611
tp2387
a(F0.63188283896188224
F7.615109517365063
tp2388
a(F1.6346344108605582
F3.8051714623819386
tp2389
a(F1.8884638198852546
F3.857772265024254
tp2390
a(F1.9307582868672775
F2.884065838104986
tp2391
a(F2.421484849935645
F2.1935684181813144
tp2392
a(F2.220834801923651
F1.641246543057731
tp2393
a(F2.91963288283738
F-2.9701398295137365
tp2394
a(F2.7322866623050697
F-3.0689342594554336
tp2395
a(F1.4767913042511474
F-4.278611205503804
tp2396
a(F1.0349119881968623
F-6.115046406049446
tp2397
a(F0.27643645744015188
F-5.567243123348543
tp2398
a(F-0.11881247889710878
F-5.78646676740369
tp2399
a(F-0.47596469945246866
F-7.256037726313397
tp2400
a(F-1.075785247914725
F-6.890410037035133
tp2401
a(F-1.0874298986740971
F-7.038521769148715
tp2402
a(F-1.6559624594807048
F-6.639042420928775
tp2403
a(F-1.8772641868884392
F-6.761786764196596
tp2404
a(F-1.9270860067873752
F-6.44853748694314
tp2405
a(F-2.830080438105476
F-5.814048538135341
tp2406
a(F-3.2369545828177824
F-6.015860281143034
tp2407
a(F-3.327188356650394
F-5.464755707811686
tp2408
a(F-4.670646123713048
F-4.520775239242245
tp2409
a(F-3.9429001320189307
F-3.1713424666960357
tp2410
a(F-4.485083748565717
F-3.085316737114418
tp2411
a(F-4.4111035353494685
F-1.6520699649454276
tp2412
a(F-5.475903464735936
F-0.98784982348237627
tp2413
a(F-5.309075617251125
F-0.2694733451765039
tp2414
a(F-5.383614487953146
F-0.15961550497801014
tp2415
aa(lp2416
(F-5.6079788082879425
F-0.12832407684002511
tp2417
a(F-5.3999331719271595
F0.018990192762377234
tp2418
a(F-5.204629824348178
F1.5101461862151417
tp2419
a(F-5.666613732318112
F2.7004260986579744
tp2420
a(F-4.889956316248529
F3.9127024833817146
tp2421
a(F-4.679873120230319
F5.516703749870924
tp2422
a(F-4.040000859236173
F5.2393890085907255
tp2423
a(F-3.8405216478760273
F5.550754009647452
tp2424
a(F-3.541824381056342
F5.377094113168695
tp2425
a(F-3.5453331087345674
F5.513833713789003
tp2426
a(F-2.194989697914558
F6.396021955953207
tp2427
a(F-1.9887167354051059
F6.099652505968226
tp2428
a(F-1.4216614856344805
F6.4530384393000055
tp2429
a(F-1.2628998556019564
F6.700014876020983
tp2430
a(F-1.1885456207819036
F6.598315054777416
tp2431
a(F0.48158657322006349
F7.639132901721922
tp2432
a(F1.5081530766151126
F3.738710407394514
tp2433
a(F1.7658306755528042
F3.7921086664029797
tp2434
a(F1.8034635110256225
F2.9257226736759776
tp2435
a(F2.260748978626058
F2.2822799515775998
tp2436
a(F2.0935206532487403
F1.8219568010909555
tp2437
a(F2.814642995899046
F-2.9367479445005946
tp2438
a(F2.7407074011078496
F-2.975736854546616
tp2439
a(F1.3540999010585288
F-4.311741098024981
tp2440
a(F0.92257385827595684
F-6.105148451857147
tp2441
a(F0.14055373304339369
F-5.540340261785186
tp2442
a(F-0.20721179994292882
F-5.7332273777494605
tp2443
a(F-0.56816706260363503
F-7.2184466790517705
tp2444
a(F-1.2485066484007987
F-6.8037376609675055
tp2445
a(F-1.2599120847985343
F-6.948806755377265
tp2446
a(F-1.7623409805339065
F-6.595775140951395
tp2447
a(F-1.987743161130929
F-6.720793788354643
tp2448
a(F-2.038488119058174
F-6.401740381088273
tp2449
a(F-2.9151778323652984
F-5.785734439816975
tp2450
a(F-3.3558818840747886
F-6.004325996891538
tp2451
a(F-3.4536182240360986
F-5.407399351295792
tp2452
a(F-4.678269984954888
F-4.546897911318192
tp2453
a(F-3.9453141515951025
F-3.1878047199395
tp2454
a(F-3.947710771698972
F-3.1698635922724288
tp2455
a(F-4.602462897948875
F-3.0659771456208214
tp2456
a(F-4.532636266798512
F-1.7131992965606537
tp2457
a(F-4.6180588179962925
F-1.587300729940977
tp2458
a(F-5.539311866305049
F-1.0126248559263233
tp2459
a(F-5.403826223569013
F-0.42921087344605979
tp2460
a(F-5.6079788082879425
F-0.12832407684002511
tp2461
aa(lp2462
(F-5.8323431286227425
F-0.097032648702041868
tp2463
a(F-5.493382685175025
F0.14298060523621992
tp2464
a(F-5.328084865895832
F1.4050420956219032
tp2465
a(F-5.799584609309356
F2.619839112628817
tp2466
a(F-5.0069297871832745
F3.8570856800584377
tp2467
a(F-4.794021090275933
F5.482659861899901
tp2468
a(F-4.145542907072699
F5.201615393240708
tp2469
a(F-3.8122390418508303
F5.721865887712799
tp2470
a(F-3.611780880008812
F5.60532132068527
tp2471
a(F-3.612168899603841
F5.620442940065056
tp2472
a(F-2.4401808904972384
F6.386110423837522
tp2473
a(F-2.2216732728608157
F6.072162431485072
tp2474
a(F-1.3815250351269128
F6.595738519086311
tp2475
a(F-1.3249173376693069
F6.683799893904611
tp2476
a(F-1.2984057553145334
F6.647538029427224
tp2477
a(F0.33129030747824117
F7.663156286078777
tp2478
a(F1.3816717423696634
F3.6722493524070856
tp2479
a(F1.643197531220352
F3.7264450677817056
tp2480
a(F1.6761687351839658
F2.967379509246973
tp2481
a(F1.8589652612891285
F2.710167980167707
tp2482
a(F1.8589914711145
F2.7101818015554535
tp2483
a(F1.8590012364597275
F2.7101173597930472
tp2484
a(F2.100013107316471
F2.370991484973887
tp2485
a(F1.9662065045738295
F2.0026670591241853
tp2486
a(F2.6610537321556365
F-2.5826475314655344
tp2487
a(F2.7916089756893783
F-2.8416089218100655
tp2488
a(F1.2314084978659086
F-4.344870990546157
tp2489
a(F0.83286269939629243
F-6.001213586245437
tp2490
a(F0.80855576264535323
F-6.16486326908563
tp2491
a(F-0.090627662909199103
F-5.566294524255311
tp2492
a(F-0.29561112098875064
F-5.6799879880952275
tp2493
a(F-0.66036942575480495
F-7.180855631790142
tp2494
a(F-1.4212280488868743
F-6.717065284899875
tp2495
a(F-1.432394270922975
F-6.859091741605812
tp2496
a(F-1.8687195015871065
F-6.552507860974016
tp2497
a(F-2.098222135373419
F-6.679800812512684
tp2498
a(F-2.149890231328973
F-6.354943275233406
tp2499
a(F-3.0002752266251225
F-5.757420341498607
tp2500
a(F-3.4748091853317966
F-5.992791712640043
tp2501
a(F-3.5800480914218067
F-5.350042994779898
tp2502
a(F-4.685893846196727
F-4.573020583394139
tp2503
a(F-4.043382828279558
F-3.3816359049555746
tp2504
a(F-4.074453793072568
F-3.1490382791614646
tp2505
a(F-4.719842047332033
F-3.0466375541272237
tp2506
a(F-4.657005627782482
F-1.8292837296553106
tp2507
a(F-4.89458280201703
F-1.4791346732494652
tp2508
a(F-5.602720267874165
F-1.0373998883702713
tp2509
a(F-5.4985768298869
F-0.58894840171561746
tp2510
a(F-5.8323431286227425
F-0.097032648702041868
tp2511
aa(lp2512
(F-5.918663259669952
F0.032005981797309957
tp2513
a(F-5.58683219842289
F0.26697101771005727
tp2514
a(F-5.4515399074434825
F1.2999380050286664
tp2515
a(F-5.9325554863006005
F2.5392521265996617
tp2516
a(F-5.123903258118016
F3.8014688767351608
tp2517
a(F-4.908169060321544
F5.448615973928877
tp2518
a(F-4.251084954909224
F5.163841777890688
tp2519
a(F-3.7839564358256332
F5.892977765778145
tp2520
a(F-3.5940384570699706
F5.782561166117484
tp2521
a(F-2.6853720830799137
F6.376198891721831
tp2522
a(F-2.3703102463420773
F5.923523455594468
tp2523
a(F-2.320800712830037
F6.128073966529989
tp2524
a(F0.18099404173642242
F7.687179670435633
tp2525
a(F1.2551904081242178
F3.605788297419659
tp2526
a(F1.5205643868878997
F3.6607814691604332
tp2527
a(F1.548873959342309
F3.0090363448179662
tp2528
a(F1.7420234802186627
F2.737257199644537
tp2529
a(F1.7540015841761676
F2.7435736865685953
tp2530
a(F1.758464426589068
F2.714123275573085
tp2531
a(F1.9392772360068857
F2.459703018370174
tp2532
a(F1.8388923558989188
F2.18337731715741
tp2533
a(F2.5101620804279356
F-2.2463487289779005
tp2534
a(F2.775292758756727
F-2.772245714994148
tp2535
a(F1.1087170946732918
F-4.378000883067331
tp2536
a(F0.74784523880967768
F-5.877771872376919
tp2537
a(F0.68981488696752002
F-6.2684689302324905
tp2538
a(F-0.32410512540533531
F-5.593522293187813
tp2539
a(F-0.38401044203457246
F-5.626748598440997
tp2540
a(F-0.75257178890597309
F-7.143264584528514
tp2541
a(F-1.593949449372948
F-6.6303929088322455
tp2542
a(F-1.6048764570474123
F-6.769376727834361
tp2543
a(F-1.9750980226403065
F-6.509240580996638
tp2544
a(F-2.208701109615907
F-6.63880783667073
tp2545
a(F-2.261292343599772
F-6.308146169378539
tp2546
a(F-3.085372620884945
F-5.7291062431802375
tp2547
a(F-3.593736486588803
F-5.981257428388545
tp2548
a(F-3.706477958807513
F-5.292686638264004
tp2549
a(F-4.693517707438566
F-4.599143255470084
tp2550
a(F-4.104005583593906
F-3.506032487690468
tp2551
a(F-4.149037360394388
F-3.518679282625521
tp2552
a(F-4.20119681444616
F-3.128212966050498
tp2553
a(F-4.837221196715191
F-3.027297962633627
tp2554
a(F-4.796759540611948
F-2.24341892950525
tp2555
a(F-4.57679340245075
F-2.246887236024792
tp2556
a(F-5.171106786037768
F-1.3709686165579562
tp2557
a(F-5.666128669443282
F-1.0621749208142184
tp2558
a(F-5.593327436204788
F-0.74868592998517158
tp2559
a(F-5.9441781995488086
F-0.23159053090068582
tp2560
a(F-5.918663259669952
F0.032005981797309957
tp2561
aa(lp2562
(F-5.956552403088583
F0.19533793223082796
tp2563
a(F-5.680281711670752
F0.39096143018389817
tp2564
a(F-5.574994948991133
F1.1948339144354279
tp2565
a(F-6.065526363291845
F2.4586651405705044
tp2566
a(F-5.240876729052758
F3.7458520734118856
tp2567
a(F-5.022317030367155
F5.414572085957854
tp2568
a(F-4.35662700274575
F5.126068162540669
tp2569
a(F-3.7556738298004344
F6.0640896438434915
tp2570
a(F-3.5638434987234646
F5.952561219793925
tp2571
a(F-2.9305632756625926
F6.366287359606144
tp2572
a(F-2.3683874277426806
F5.558562756168463
tp2573
a(F-2.180964854815242
F6.332906207492506
tp2574
a(F0.030697775994600107
F7.711203054792488
tp2575
a(F1.1287090738787704
F3.5393272424322326
tp2576
a(F1.3979312425554475
F3.595117870539159
tp2577
a(F1.4215791835006524
F3.050693180388958
tp2578
a(F1.6250816991481951
F2.764346419121365
tp2579
a(F1.6490116972378317
F2.776965571581737
tp2580
a(F1.657927616718407
F2.7181291913531247
tp2581
a(F1.7785413646972987
F2.548414551766461
tp2582
a(F1.7115782072240062
F2.3640875751906396
tp2583
a(F2.359270428700233
F-1.9100499264902613
tp2584
a(F2.758976541824074
F-2.702882508178229
tp2585
a(F0.98602569148067332
F-4.411130775588512
tp2586
a(F0.66282777822305938
F-5.754330158508404
tp2587
a(F0.57107401128968505
F-6.372074591379355
tp2588
a(F-0.49415257891228492
F-5.662974173226253
tp2589
a(F-0.84477415205714124
F-7.105673537266886
tp2590
a(F-1.7666708498590236
F-6.543720532764616
tp2591
a(F-1.777358643171853
F-6.679661714062909
tp2592
a(F-2.0814765436935083
F-6.465973301019258
tp2593
a(F-2.319180083858397
F-6.597814860828771
tp2594
a(F-2.3726944558705707
F-6.26134906352367
tp2595
a(F-2.6560836674265396
F-6.062225661753459
tp2596
a(F-2.66372936377927
F-6.071034736499994
tp2597
a(F-2.6712960933858483
F-6.051536652141686
tp2598
a(F-3.170470015144769
F-5.700792144861872
tp2599
a(F-3.712663787845809
F-5.96972314413705
tp2600
a(F-3.8240152277674504
F-5.289642003990074
tp2601
a(F-3.9997752182015134
F-5.182505429001563
tp2602
a(F-3.9864017601467694
F-5.127477784075008
tp2603
a(F-4.701141568680402
F-4.625265927546032
tp2604
a(F-4.111739630855265
F-3.5323594736719652
tp2605
a(F-4.140967190171896
F-3.353851572222676
tp2606
a(F-4.289446307513153
F-3.395550680776008
tp2607
a(F-4.360265509899108
F-2.8653972579472535
tp2608
a(F-5.4476307700585025
F-1.2628025598664454
tp2609
a(F-5.729537071012402
F-1.0869499532581655
tp2610
a(F-5.688078042522676
F-0.90842345825472925
tp2611
a(F-6.016533863814637
F-0.42433446162896971
tp2612
a(F-5.956552403088583
F0.19533793223082796
tp2613
aa(lp2614
(F-5.994441546507211
F0.35866988266434419
tp2615
a(F-5.773731224918617
F0.5149518426577373
tp2616
a(F-5.6984499905387835
F1.089729823842191
tp2617
a(F-6.198497240283089
F2.378078154541349
tp2618
a(F-5.357850199987503
F3.6902352700886105
tp2619
a(F-5.136465000412766
F5.380528197986834
tp2620
a(F-4.4621690505822755
F5.0882945471906496
tp2621
a(F-3.7273912237752356
F6.235201521908834
tp2622
a(F-3.533648540376962
F6.122561273470367
tp2623
a(F-3.175754468245268
F6.3563758274904565
tp2624
a(F-2.4802273750825066
F5.35705444507296
tp2625
a(F-2.3013456341237664
F5.462643565861105
tp2626
a(F-2.041128996800449
F6.537738448455018
tp2627
a(F-0.11959848974722043
F7.7352264391493435
tp2628
a(F0.17978617059682023
F6.5977193611367895
tp2629
a(F0.19113525101910511
F6.603349380611849
tp2630
a(F0.20350644120994588
F6.50759458425679
tp2631
a(F0.98950639829581455
F3.5212007139920267
tp2632
a(F1.0210805141959742
F3.4767730281763036
tp2633
a(F1.2752980982229953
F3.529454271917885
tp2634
a(F1.2942844076589974
F3.092350015959953
tp2635
a(F1.5081399180777275
F2.791435638598191
tp2636
a(F1.5440218102994976
F2.8103574565948772
tp2637
a(F1.5573908068477458
F2.7221351071331625
tp2638
a(F1.6178054933877135
F2.6371260851627465
tp2639
a(F1.5842640585490955
F2.5447978332238623
tp2640
a(F2.2083787769725323
F-1.5737511240026283
tp2641
a(F2.742660324891421
F-2.6335193013623126
tp2642
a(F0.86333428828805481
F-4.444260668109687
tp2643
a(F0.57781031763644464
F-5.6308884446398855
tp2644
a(F0.45233313561185184
F-6.475680252526214
tp2645
a(F-0.61958727265372104
F-5.762123891166664
tp2646
a(F-0.93697651520830938
F-7.068082490005259
tp2647
a(F-1.9393922503450973
F-6.457048156696987
tp2648
a(F-1.9498408292962886
F-6.589946700291459
tp2649
a(F-2.1878550647467065
F-6.422706021041879
tp2650
a(F-2.429659058100885
F-6.556821884986817
tp2651
a(F-2.484096568141368
F-6.214551957668806
tp2652
a(F-2.75572773974225
F-6.023690341522514
tp2653
a(F-2.7916850553401
F-6.065118965701809
tp2654
a(F-2.82727099440374
F-5.973420480635111
tp2655
a(F-3.255567409404591
F-5.672478046543505
tp2656
a(F-3.831591089102817
F-5.958188859885552
tp2657
a(F-3.950644891074237
F-5.231065389901405
tp2658
a(F-4.091977581352683
F-5.144914381739936
tp2659
a(F-4.079493544143368
F-5.093546428590346
tp2660
a(F-4.7087654299222415
F-4.651388599621979
tp2661
a(F-4.200015149386836
F-3.7080315637441306
tp2662
a(F-4.266283751380509
F-3.3032947553874905
tp2663
a(F-4.310058454621817
F-3.2387781574282197
tp2664
a(F-4.42985525463191
F-3.272422078926498
tp2665
a(F-4.464818347352448
F-3.01068793544586
tp2666
a(F-5.724154754079237
F-1.1546365031749364
tp2667
a(F-5.792945472581518
F-1.1117249857021125
tp2668
a(F-5.782828648840564
F-1.0681609865242852
tp2669
a(F-6.088889528080465
F-0.61707839235724826
tp2670
a(F-5.994441546507211
F0.35866988266434419
tp2671
aa(lp2672
(F-6.032330689925843
F0.52200183309786219
tp2673
a(F-5.867180738166482
F0.63894225513157821
tp2674
a(F-5.821905032086434
F0.9846257332489543
tp2675
a(F-6.3314681172743335
F2.29749116851219
tp2676
a(F-5.474823670922245
F3.6346184667653336
tp2677
a(F-5.250612970458381
F5.346484310015811
tp2678
a(F-4.567711098418798
F5.05052093184063
tp2679
a(F-3.6991086177500385
F6.406313399974184
tp2680
a(F-3.5058182070747144
F6.293936098817035
tp2681
a(F-3.5049142399106383
F6.291607069735406
tp2682
a(F-3.4209456608279467
F6.346464295374773
tp2683
a(F-2.7179218419885487
F5.336371746254455
tp2684
a(F-2.201496552219652
F5.641203821385247
tp2685
a(F-2.1475599949973745
F5.7251098552866715
tp2686
a(F-1.9012931387856558
F6.742570689417535
tp2687
a(F-0.26989475548904274
F7.759249823506202
tp2688
a(F0.81831110182444178
F3.624629620833394
tp2689
a(F0.96086438165238519
F3.42404404154993
tp2690
a(F1.1526649538905396
F3.463790673296611
tp2691
a(F1.1669896318173407
F3.1340068515309447
tp2692
a(F1.39119813700726
F2.818524858075019
tp2693
a(F1.4390319233611635
F2.843749341608021
tp2694
a(F1.4568539969770864
F2.726141022913202
tp2695
a(F1.4570696220781265
F2.7258376185590336
tp2696
a(F1.4569499098741847
F2.725508091257092
tp2697
a(F2.0574871252448297
F-1.2374523215149882
tp2698
a(F2.7263441079587665
F-2.5641560945463926
tp2699
a(F0.7406428850954363
F-4.477390560630862
tp2700
a(F0.49279285704982811
F-5.507446730771368
tp2701
a(F0.33359225993401687
F-6.579285913673076
tp2702
a(F-0.74502196639516072
F-5.861273609107074
tp2703
a(F-1.0291788783594775
F-7.030491442743632
tp2704
a(F-2.112113650831173
F-6.370375780629356
tp2705
a(F-2.1223230154207293
F-6.500231686520005
tp2706
a(F-2.2942335857999083
F-6.379438741064502
tp2707
a(F-2.540138032343375
F-6.515828909144861
tp2708
a(F-2.5954986804121667
F-6.167754851813939
tp2709
a(F-2.8553718120579603
F-5.985155021291567
tp2710
a(F-2.9196407469009316
F-6.059203194903623
tp2711
a(F-2.983245895421634
F-5.89530430912854
tp2712
a(F-3.3406648036644153
F-5.6441639482251365
tp2713
a(F-3.950518390359825
F-5.946654575634057
tp2714
a(F-4.077274554381024
F-5.172488775812733
tp2715
a(F-4.18417994450385
F-5.107323334478307
tp2716
a(F-4.1725853281399665
F-5.059615073105685
tp2717
a(F-4.716389291164077
F-4.6775112716979255
tp2718
a(F-4.288290667918414
F-3.883703653816296
tp2719
a(F-4.355938595774191
F-3.470542585247167
tp2720
a(F-6.161245192346293
F-0.80982232308553215
tp2721
a(F-6.032330689925843
F0.52200183309786219
tp2722
aa(lp2723
(F-6.070219833344474
F0.68533378353138019
tp2724
a(F-5.960630251414344
F0.76293266760541734
tp2725
a(F-5.945360073634085
F0.87952164265571753
tp2726
a(F-6.464438994265578
F2.2169041824830327
tp2727
a(F-5.591797141856986
F3.5790016634420585
tp2728
a(F-5.3647609405039915
F5.312440422044787
tp2729
a(F-4.673253146255327
F5.012747316490611
tp2730
a(F-3.9461967903161614
F6.147601928616515
tp2731
a(F-3.9463478539502184
F6.153489071445321
tp2732
a(F-3.9396014327180833
F6.15789655286078
tp2733
a(F-3.738873196583114
F6.47121114353981
tp2734
a(F-3.682467294889843
F6.325883978306393
tp2735
a(F-3.666136853410624
F6.336552763259082
tp2736
a(F-2.9556163088945873
F5.315689047435951
tp2737
a(F-2.160724695455741
F5.784892366539591
tp2738
a(F-1.9716339447233064
F6.079050091068012
tp2739
a(F-1.7614572807708626
F6.947402930380047
tp2740
a(F-0.42019102123086149
F7.783273207863054
tp2741
a(F0.64711580535307078
F3.7280585276747615
tp2742
a(F0.90064824910879615
F3.3713150549235564
tp2743
a(F1.0300318095580892
F3.3981270746753367
tp2744
a(F1.039694855975684
F3.175663687101938
tp2745
a(F1.2742563559367923
F2.845614077551847
tp2746
a(F1.2987910395449092
F2.8585521025302896
tp2747
a(F1.3447355023566754
F2.8065747719760417
tp2748
a(F1.906595473517127
F-0.90115351902735341
tp2749
a(F2.7100278910261117
F-2.494792887730477
tp2750
a(F0.61795148190281779
F-4.510520453152039
tp2751
a(F0.40777539646321159
F-5.384005016902851
tp2752
a(F0.21981961835826702
F-6.649442278291446
tp2753
a(F0.16137116475315239
F-6.6472908431433755
tp2754
a(F-0.87045666013659684
F-5.960423327047484
tp2755
a(F-1.1213812415106457
F-6.992900395482003
tp2756
a(F-2.2848350513172466
F-6.283703404561728
tp2757
a(F-2.2948052015451683
F-6.410516672748557
tp2758
a(F-2.4006121068531083
F-6.3361714610871225
tp2759
a(F-2.650617006585863
F-6.474835933302903
tp2760
a(F-2.7069007926829656
F-6.120957745959072
tp2761
a(F-2.955015884373669
F-5.946619701060623
tp2762
a(F-3.0475964384617615
F-6.053287424105437
tp2763
a(F-3.139220796439526
F-5.8171881376219705
tp2764
a(F-3.4257621979242376
F-5.615849849906771
tp2765
a(F-4.069445691616831
F-5.93512029138256
tp2766
a(F-4.203904217687807
F-5.113912161724063
tp2767
a(F-4.27638230765502
F-5.069732287216679
tp2768
a(F-4.2656771121365615
F-5.025683717621023
tp2769
a(F-4.724013152405917
F-4.703633943773872
tp2770
a(F-4.376566186449985
F-4.0593757438884595
tp2771
a(F-4.445593440167869
F-3.637790415106843
tp2772
a(F-6.233600856612121
F-1.0025662538138125
tp2773
a(F-6.070219833344474
F0.68533378353138019
tp2774
aa(lp2775
(F-6.108108976763102
F0.84866573396489819
tp2776
a(F-6.099891504284404
F0.85448441383414675
tp2777
a(F-6.597409871256822
F2.136317196453877
tp2778
a(F-5.708770612791728
F3.5233848601187816
tp2779
a(F-5.4789089105496025
F5.278396534073764
tp2780
a(F-4.778795194091849
F4.974973701140591
tp2781
a(F-4.010960975877584
F6.173478049215447
tp2782
a(F-4.013183644819492
F6.260098297721374
tp2783
a(F-3.913920436732596
F6.324947605202784
tp2784
a(F-3.8718440735743602
F6.390624157510654
tp2785
a(F-3.765925007969198
F6.11772864327394
tp2786
a(F-3.1933107758006294
F5.295006348617447
tp2787
a(F-2.119952838691832
F5.928580911693935
tp2788
a(F-1.7957078944492366
F6.432990326849357
tp2789
a(F-1.6216214227560677
F7.152235171342561
tp2790
a(F-0.5704872869726838
F7.807296592219913
tp2791
a(F0.47592050888169801
F3.831487434516127
tp2792
a(F0.84043211656520889
F3.318586068297181
tp2793
a(F0.90739866522563517
F3.3324634760540626
tp2794
a(F0.91240008013402729
F3.2173205226729316
tp2795
a(F1.1355978794589543
F2.903260685351608
tp2796
a(F1.0892105560263303
F2.7755720368109422
tp2797
a(F1.2717956222355973
F2.5258368517180294
tp2798
a(F1.1812402654318301
F2.384965034360089
tp2799
a(F1.293155200220827
F2.3042248720539718
tp2800
a(F1.2540875036227597
F2.1587420283200363
tp2801
a(F1.36136848906445
F2.0373742094093394
tp2802
a(F1.755703821789428
F-0.56485471653971864
tp2803
a(F2.6937116740934606
F-2.425429680914556
tp2804
a(F0.49526007871019928
F-4.543650345673213
tp2805
a(F0.32275793587659329
F-5.260563303034334
tp2806
a(F0.14578904075113996
F-6.452029914257542
tp2807
a(F-0.43865068636533699
F-6.430517212153536
tp2808
a(F-0.99589135387803651
F-6.059573044987895
tp2809
a(F-1.2135836046618138
F-6.955309348220374
tp2810
a(F-2.398757176674904
F-6.232872820095862
tp2811
a(F-2.4631837944195745
F-6.268606851531896
tp2812
a(F-2.4672873876696073
F-6.320801658977103
tp2813
a(F-2.50699062790631
F-6.292904181109742
tp2814
a(F-2.761095980828351
F-6.43384295746095
tp2815
a(F-2.8183029049537645
F-6.074160640104204
tp2816
a(F-3.0546599566893775
F-5.908084380829676
tp2817
a(F-3.1755521300225915
F-6.047371653307253
tp2818
a(F-3.2951956974574195
F-5.7390719661153975
tp2819
a(F-3.5108595921840617
F-5.587535751588402
tp2820
a(F-4.188372992873838
F-5.923586007131066
tp2821
a(F-4.330533880994594
F-5.055335547635394
tp2822
a(F-4.368584670806186
F-5.032141239955051
tp2823
a(F-4.35876889613316
F-4.99175236213636
tp2824
a(F-4.731637013647756
F-4.729756615849818
tp2825
a(F-4.464841704981563
F-4.235047833960626
tp2826
a(F-4.5352482845615505
F-3.8050382449665197
tp2827
a(F-6.305956520877949
F-1.1953101845420964
tp2828
a(F-6.108108976763102
F0.84866573396489819
tp2829
aa(lp2830
(F-6.378312185143777
F-1.3880541152703767
tp2831
a(F-6.290423345000018
F-0.48006875935877247
tp2832
a(F-6.3399959726260136
F-0.45858443937383697
tp2833
a(F-6.192270156729386
F0.6693134614692422
tp2834
a(F-6.730380748248066
F2.05573021042472
tp2835
a(F-5.82574408372647
F3.4677680567955065
tp2836
a(F-5.593056880595213
F5.24435264610274
tp2837
a(F-4.884337241928378
F4.937200085790572
tp2838
a(F-4.07572516143901
F6.199354169814377
tp2839
a(F-4.075759582756049
F6.200695612518519
tp2840
a(F-4.075294164779528
F6.200026907962979
tp2841
a(F-4.004814950565603
F6.310037171481495
tp2842
a(F-3.8194336375691087
F5.832410896636514
tp2843
a(F-3.431005242706668
F5.274323649798944
tp2844
a(F-2.079180981927923
F6.072269456848279
tp2845
a(F-1.7590397121407566
F6.570295019090011
tp2846
a(F-1.6938108999788248
F6.481076717632758
tp2847
a(F-1.4817855647412763
F7.357067412305078
tp2848
a(F-0.72078355271450434
F7.8313199765767685
tp2849
a(F0.30472521241032702
F3.9349163413574964
tp2850
a(F0.78021598402161985
F3.2658570816708075
tp2851
a(F0.78476552089318474
F3.2667998774327884
tp2852
a(F0.78510530429237235
F3.258977358243925
tp2853
a(F0.97486200814936907
F2.991972218747895
tp2854
a(F0.93577924324827499
F2.884390555005183
tp2855
a(F1.2097781401682468
F2.5096218696016592
tp2856
a(F1.1210849180412001
F2.3716468692331656
tp2857
a(F1.2004678707263476
F2.314376653276538
tp2858
a(F1.026353002282109
F1.6659963185403086
tp2859
a(F1.3780014757722228
F1.2681736468426479
tp2860
a(F1.6048121700617255
F-0.22855591405208386
tp2861
a(F2.4157216096049314
F-1.8370262460256965
tp2862
a(F2.5592031727729783
F-2.469945414954596
tp2863
a(F0.37256867551758077
F-4.576780238194392
tp2864
a(F0.23774047528997855
F-5.137121589165817
tp2865
a(F0.071758463144014684
F-6.254617550223643
tp2866
a(F-1.0386725374838193
F-6.213743581163698
tp2867
a(F-1.1213260476194726
F-6.158722762928302
tp2868
a(F-1.3057859678129802
F-6.917718300958748
tp2869
a(F-2.502588893847813
F-6.188192962939895
tp2870
a(F-2.871574955070841
F-6.392849981618992
tp2871
a(F-2.9297050172245633
F-6.027363534249339
tp2872
a(F-3.154304029005086
F-5.869549060598731
tp2873
a(F-3.3035078215834215
F-6.041455882509067
tp2874
a(F-3.4511705984753114
F-5.660955794608825
tp2875
a(F-3.595956986443884
F-5.559221653270036
tp2876
a(F-4.307300294130847
F-5.912051722879572
tp2877
a(F-4.45716354430138
F-4.996758933546725
tp2878
a(F-4.460787033957356
F-4.994550192693424
tp2879
a(F-4.458838160570608
F-4.98653118128338
tp2880
a(F-4.465057163121756
F-4.948548499168646
tp2881
a(F-4.739260874889592
F-4.755879287925765
tp2882
a(F-4.553117223513137
F-4.41071992403279
tp2883
a(F-4.624903128955232
F-3.9722860748261937
tp2884
a(F-6.378312185143777
F-1.3880541152703767
tp2885
aa(lp2886
(F-6.450667849409605
F-1.5807980459986588
tp2887
a(F-6.349718652097533
F-0.53788528596605722
tp2888
a(F-6.454143942671628
F-0.4926283273448604
tp2889
a(F-6.315725198277036
F0.56420937087600365
tp2890
a(F-6.863351625239314
F1.9751432243955627
tp2891
a(F-5.942717554661215
F3.4121512534722296
tp2892
a(F-5.707204850640828
F5.2103087581317205
tp2893
a(F-4.989879289764904
F4.899426470440554
tp2894
a(F-4.137785827556847
F6.229450185452338
tp2895
a(F-3.872942267169023
F5.547093149999084
tp2896
a(F-3.66869970961271
F5.2536409509804365
tp2897
a(F-2.038409125164014
F6.215958002002626
tp2898
a(F-1.8210571942081089
F6.554080036973641
tp2899
a(F-1.6443749022321619
F6.312418515550629
tp2900
a(F-1.3419497067264814
F7.5618996532675915
tp2901
a(F-0.87107981845632665
F7.855343360933624
tp2902
a(F0.13352991593895247
F4.038345248198864
tp2903
a(F0.81412613683978208
F3.080683752144182
tp2904
a(F0.78234793047021967
F2.9932090731994236
tp2905
a(F1.1477606581008963
F2.4934068874852855
tp2906
a(F1.0609295706505666
F2.358328704106242
tp2907
a(F1.1077805412318664
F2.324528434499104
tp2908
a(F0.83967205962425595
F1.3261285356068662
tp2909
a(F1.0735548305755334
F0.8622129861136667
tp2910
a(F1.3946344624799973
F0.49897308427594211
tp2911
a(F1.453920518334023
F0.10774288843555624
tp2912
a(F2.0645624401229092
F-1.1034890528402261
tp2913
a(F2.391645806437632
F-2.5463039191371823
tp2914
a(F0.24987727232496226
F-4.609910130715569
tp2915
a(F0.15272301470336203
F-5.0136798752972975
tp2916
a(F-0.0022721144631123735
F-6.057205186189737
tp2917
a(F-1.1873904390590742
F-6.013582043730171
tp2918
a(F-1.39798833096415
F-6.88012725369712
tp2919
a(F-2.606420611020722
F-6.143513105783927
tp2920
a(F-2.982053929313329
F-6.3518570057770365
tp2921
a(F-3.041107129495362
F-5.9805664283944715
tp2922
a(F-3.2539481013207983
F-5.831013740367785
tp2923
a(F-3.4314635131442532
F-6.03554011171088
tp2924
a(F-3.607145499493207
F-5.582839623102254
tp2925
a(F-3.68105438070371
F-5.530907554951666
tp2926
a(F-4.426227595387854
F-5.900517438628073
tp2927
a(F-4.591487030507466
F-4.891192142652751
tp2928
a(F-4.746884736131431
F-4.782001960001714
tp2929
a(F-4.641392742044712
F-4.5863920141049554
tp2930
a(F-4.71455797334891
F-4.1395339046858695
tp2931
a(F-6.450667849409605
F-1.5807980459986588
tp2932
aa(lp2933
(F-6.523023513675433
F-1.7735419767269391
tp2934
a(F-6.40901395919505
F-0.59570181257334021
tp2935
a(F-6.5682919127172354
F-0.52667221531588204
tp2936
a(F-6.439180239824687
F0.45910528028276865
tp2937
a(F-6.996322502230555
F1.8945562383664054
tp2938
a(F-6.059691025595953
F3.3565344501489545
tp2939
a(F-5.821352820686439
F5.176264870160697
tp2940
a(F-5.095421337601426
F4.861652855090535
tp2941
a(F-4.270756704548095
F6.148863199423182
tp2942
a(F-3.9264508967689373
F5.261775403361661
tp2943
a(F-3.9063941765187487
F5.232958252161936
tp2944
a(F-2.0215082840921674
F6.34555612325045
tp2945
a(F-2.0182395378065934
F6.3275967685968855
tp2946
a(F-1.8830746762754576
F6.537865054857267
tp2947
a(F-1.6016112841057737
F6.152886623708847
tp2948
a(F-1.5915180655919787
F6.157893638787106
tp2949
a(F-1.20211384871169
F7.766731894230105
tp2950
a(F-1.0213760841981454
F7.879366745290483
tp2951
a(F-0.013709392714719826
F4.050753774530087
tp2952
a(F0.0061778470149356224
F4.080082700407566
tp2953
a(F0.65339026553019686
F3.1693952855404692
tp2954
a(F0.62891661769216789
F3.1020275913936626
tp2955
a(F1.0857431760335476
F2.4771919053689153
tp2956
a(F1.0007742232599366
F2.3450105389793166
tp2957
a(F1.0150932117373888
F2.3346802157216704
tp2958
a(F0.78390107297867573
F1.4737518087673625
tp2959
a(F1.7134032706408906
F-0.36995185965476907
tp2960
a(F2.224088440102289
F-2.6226624233197624
tp2961
a(F0.10062015415044456
F-4.66863624130537
tp2962
a(F-0.076302692070235878
F-5.859792822155835
tp2963
a(F-0.16480288319862524
F-5.856535209506391
tp2964
a(F-0.20080744093311331
F-6.006168909934156
tp2965
a(F-0.42104618475556954
F-5.8471031234301405
tp2966
a(F-1.0966718751896671
F-5.822233947811586
tp2967
a(F-1.2867292630210514
F-6.005355326167108
tp2968
a(F-1.4901906941153182
F-6.842536206435492
tp2969
a(F-2.7102523281936293
F-6.09883324862796
tp2970
a(F-3.092532903555817
F-6.31086402993508
tp2971
a(F-3.152509241766161
F-5.933769322539605
tp2972
a(F-3.353592173636505
F-5.79247842013684
tp2973
a(F-3.559419204705083
F-6.0296243409126955
tp2974
a(F-3.7631204005110988
F-5.50472345159568
tp2975
a(F-3.7661517749635323
F-5.502593456633301
tp2976
a(F-4.54515489664486
F-5.888983154376579
tp2977
a(F-4.7179168978931685
F-4.833835786136858
tp2978
a(F-4.75450859737327
F-4.808124632077659
tp2979
a(F-4.729668260576286
F-4.762064104177118
tp2980
a(F-4.804212817742592
F-4.306781734545546
tp2981
a(F-6.523023513675433
F-1.7735419767269391
tp2982
aa(lp2983
(F-6.595379177941261
F-1.9662859074552195
tp2984
a(F-6.4683092662925645
F-0.65351833918062319
tp2985
a(F-6.68243988276285
F-0.56071610328690547
tp2986
a(F-6.562635281372337
F0.35400118968953187
tp2987
a(F-7.129293379221799
F1.8139692523372482
tp2988
a(F-6.1766644965306945
F3.3009176468256776
tp2989
a(F-5.935500790732046
F5.142220982189672
tp2990
a(F-5.200963385437952
F4.823879239740517
tp2991
a(F-4.403727581539336
F6.068276213394025
tp2992
a(F-4.085020362905695
F5.24714198394194
tp2993
a(F-2.1423798429002865
F6.393830871334359
tp2994
a(F-2.1169766671017562
F6.254259120077311
tp2995
a(F-1.945092158342808
F6.521650072740897
tp2996
a(F-1.695066801713839
F6.179671782774445
tp2997
a(F-1.6109747277925344
F6.221387939172962
tp2998
a(F-1.5442417592296156
F5.98031259003719
tp2999
a(F-1.1232809874287177
F7.719527946100733
tp3000
a(F-0.1684257346709277
F4.091571165545282
tp3001
a(F-0.052980668679380116
F3.933668356065681
tp3002
a(F-0.02098833837645131
F3.980849397620851
tp3003
a(F0.49265439422060986
F3.2581068189367546
tp3004
a(F0.47548530491411434
F3.210846109587905
tp3005
a(F0.91604283818408838
F2.608262780077524
tp3006
a(F0.89265362895646128
F2.3662965294827174
tp3007
a(F0.92240588224290931
F2.3448319969442366
tp3008
a(F0.72813008633309373
F1.6213750819278587
tp3009
a(F1.3622441011588737
F0.36358533353068623
tp3010
a(F2.056531073766944
F-2.699020927502348
tp3011
a(F-0.0052449221934836032
F-4.685553871833729
tp3012
a(F-0.15033326967736116
F-5.662380458121933
tp3013
a(F-0.98710297898677446
F-5.631579715717162
tp3014
a(F-1.392051952123074
F-6.021750363490999
tp3015
a(F-1.5823930572664846
F-6.804945159173865
tp3016
a(F-2.8140840453665366
F-6.054153391471991
tp3017
a(F-3.203011877798305
F-6.269871054093125
tp3018
a(F-3.263911354036958
F-5.886972216684738
tp3019
a(F-3.4532362459522137
F-5.753943099905895
tp3020
a(F-3.687374896265915
F-6.0237085701145086
tp3021
a(F-3.8926296980704063
F-5.494804321038009
tp3022
a(F-4.664082197901866
F-5.877448870125081
tp3023
a(F-4.893867662136273
F-4.47402956440522
tp3024
a(F-6.595379177941261
F-1.9662859074552195
tp3025
aa(lp3026
(F-6.667734842207089
F-2.1590298381835034
tp3027
a(F-6.491337775066519
F-0.33666020027031607
tp3028
a(F-6.773732132551196
F-0.42025481933545628
tp3029
a(F-6.686090322919988
F0.24889709909629154
tp3030
a(F-7.262264256213047
F1.733382266308091
tp3031
a(F-6.293637967465436
F3.2453008435024007
tp3032
a(F-6.049648760777661
F5.10817709421865
tp3033
a(F-5.306505433274477
F4.786105624390496
tp3034
a(F-4.536698458530584
F5.987689227364866
tp3035
a(F-4.256428354256428
F5.2655864237375685
tp3036
a(F-2.2632514017084073
F6.442105619418269
tp3037
a(F-2.2157137963969227
F6.180921471557735
tp3038
a(F-2.0071096404101585
F6.505435090624525
tp3039
a(F-1.4960669089921748
F5.8064439093042495
tp3040
a(F-1.1452352721578958
F7.255918090864512
tp3041
a(F-0.35182920784891714
F4.241384838384498
tp3042
a(F-0.067710911289804443
F3.852775096894746
tp3043
a(F-0.048154523767836466
F3.8816160948341345
tp3044
a(F0.33191852291102286
F3.3468183523330417
tp3045
a(F0.32205399213605901
F3.3196646277821458
tp3046
a(F0.69509303069099104
F2.8094313689808885
tp3047
a(F0.66280475727938537
F2.4754024422415277
tp3048
a(F0.82971855274842632
F2.3549837781668046
tp3049
a(F0.67235909968751173
F1.7689983550883568
tp3050
a(F1.011084931676848
F1.0971225267161575
tp3051
a(F1.8889737074315978
F-2.7753794316849305
tp3052
a(F-0.11110999853741355
F-4.702471502362091
tp3053
a(F-0.22436384728448822
F-5.464968094088029
tp3054
a(F-0.87753408278387823
F-5.440925483622738
tp3055
a(F-1.4973746412250986
F-6.038145400814889
tp3056
a(F-1.6745954204176545
F-6.767354111912237
tp3057
a(F-2.917915762539444
F-6.009473534316024
tp3058
a(F-3.313490852040797
F-6.228878078251168
tp3059
a(F-3.375313466307757
F-5.840175110829873
tp3060
a(F-3.552880318267926
F-5.715407779674949
tp3061
a(F-3.815330587826745
F-6.017792799316322
tp3062
a(F-4.020956508854624
F-5.4879322435788485
tp3063
a(F-4.783009499158876
F-5.865914585873584
tp3064
a(F-4.983522506529955
F-4.641277394264898
tp3065
a(F-6.667734842207089
F-2.1590298381835034
tp3066
aa(lp3067
(F-5.0789762341003275
F-4.773108429468317
tp3068
a(F-5.091291176611541
F-4.781828471825221
tp3069
a(F-6.740090506472917
F-2.3517737689117855
tp3070
a(F-6.560612199282122
F-0.4975716385106228
tp3071
a(F-7.395235133204288
F1.6527952802789354
tp3072
a(F-6.410611438400181
F3.1896840401791238
tp3073
a(F-6.163796730823272
F5.074133206247627
tp3074
a(F-5.412047481111003
F4.748332009040478
tp3075
a(F-4.669669335521828
F5.907102241335711
tp3076
a(F-4.427836345607162
F5.2840308635331965
tp3077
a(F-2.3841229605165264
F6.49038036750218
tp3078
a(F-2.3144509256920873
F6.1075838230381585
tp3079
a(F-2.069127122477509
F6.489220108508155
tp3080
a(F-1.4466309112455118
F5.637785707222122
tp3081
a(F-1.1671895568870738
F6.792308235628305
tp3082
a(F-0.5352326810269048
F4.391198511223715
tp3083
a(F-0.08244115390022877
F3.771881837723818
tp3084
a(F-0.075320709159223398
F3.782382792047418
tp3085
a(F0.17118265160143764
F3.435529885729329
tp3086
a(F0.16862267935800546
F3.4284831459763865
tp3087
a(F0.47414322319789726
F3.010599957884253
tp3088
a(F0.43295588560231124
F2.5845083550003363
tp3089
a(F0.73703122325394865
F2.365135559389369
tp3090
a(F0.61658811304192973
F1.9166216282488513
tp3091
a(F0.65992576219483112
F1.8306597199016164
tp3092
a(F1.721416341096253
F-2.851737935867514
tp3093
a(F-0.21697507488134171
F-4.71938913289045
tp3094
a(F-0.2983944248916135
F-5.267555730054126
tp3095
a(F-0.76796518658098201
F-5.250271251528317
tp3096
a(F-1.6026973303271248
F-6.054540438138779
tp3097
a(F-1.7667977835688227
F-6.729763064650609
tp3098
a(F-3.021747479712353
F-5.9647936771600545
tp3099
a(F-3.423969826283285
F-6.187885102409211
tp3100
a(F-3.497636439422152
F-5.7247142794591275
tp3101
a(F-3.5021805044162413
F-5.782511576348397
tp3102
a(F-3.6525243905836344
F-5.676872459444002
tp3103
a(F-3.943286279387575
F-6.011877028518134
tp3104
a(F-4.14928331963884
F-5.481060166119687
tp3105
a(F-4.901936800415882
F-5.854380301622087
tp3106
a(F-5.0789762341003275
F-4.773108429468317
tp3107
aa(lp3108
(F-5.211756397641658
F-4.676967512529784
tp3109
a(F-5.315655496946341
F-4.750537043687237
tp3110
a(F-6.812446170738745
F-2.5445176996400694
tp3111
a(F-6.636377915839912
F-0.72554504250229357
tp3112
a(F-7.528206010195536
F1.5722082942497782
tp3113
a(F-6.527584909334923
F3.1340672368558486
tp3114
a(F-6.277944700868883
F5.040089318276602
tp3115
a(F-5.566279558253051
F4.731660203696734
tp3116
a(F-5.46623839900581
F4.790711831833448
tp3117
a(F-4.802640212513072
F5.826515255306553
tp3118
a(F-4.599244336957899
F5.3024753033288246
tp3119
a(F-2.5049945193246472
F6.538655115586092
tp3120
a(F-2.4146272019494948
F6.042153227692918
tp3121
a(F-2.4050517223905032
F6.046903404305848
tp3122
a(F-2.1311446045448594
F6.473005126391783
tp3123
a(F-1.3971949134988488
F5.469127505139994
tp3124
a(F-1.1891438416162519
F6.328698380392089
tp3125
a(F-0.71863615420489424
F4.541012184062932
tp3126
a(F0.25319341570479992
F3.2117685467876154
tp3127
a(F0.20310701392523356
F2.693614267759145
tp3128
a(F0.64434389375946743
F2.375287340611937
tp3129
a(F0.48560137684325078
F1.7841515738926805
tp3130
a(F1.5538589747609066
F-2.9280964400500977
tp3131
a(F-0.32284015122526988
F-4.736306763418812
tp3132
a(F-0.37242500249873878
F-5.070143366020223
tp3133
a(F-0.65839629037808756
F-5.059617019433893
tp3134
a(F-1.7080200194291493
F-6.0709354754626705
tp3135
a(F-1.8590001467199926
F-6.692172017388981
tp3136
a(F-3.125579196885262
F-5.920113820004088
tp3137
a(F-3.534448800525775
F-6.146892126567255
tp3138
a(F-3.6182853430722783
F-5.619778977882734
tp3139
a(F-3.6666062552058456
F-5.5903243960206925
tp3140
a(F-3.674662690540682
F-5.6927965625769446
tp3141
a(F-3.752168462899345
F-5.638337139213057
tp3142
a(F-3.7628774711070356
F-5.650675643047197
tp3143
a(F-3.75959890948873
F-5.6331161366440945
tp3144
a(F-4.106541352002825
F-5.389337063359829
tp3145
a(F-5.020864101672892
F-5.842846017370592
tp3146
a(F-5.211756397641658
F-4.676967512529784
tp3147
aa(lp3148
(F-5.344536561182991
F-4.580826595591253
tp3149
a(F-5.540019817281134
F-4.719245615549252
tp3150
a(F-6.884801835004573
F-2.737261630368348
tp3151
a(F-6.7121436323977015
F-0.953518446493959
tp3152
a(F-7.66117688718678
F1.491621308220621
tp3153
a(F-6.644558380269665
F3.0784504335325735
tp3154
a(F-6.392092670914494
F5.00604543030558
tp3155
a(F-5.737542648476321
F4.7223694824759725
tp3156
a(F-5.742115008102843
F4.7474912328237515
tp3157
a(F-5.4738045729107725
F4.90586772669268
tp3158
a(F-4.935611089504317
F5.745928269277396
tp3159
a(F-4.770652328308632
F5.320919743124451
tp3160
a(F-2.6258660781327645
F6.586929863670001
tp3161
a(F-2.5119251842824184
F5.960908525999004
tp3162
a(F-2.193162086612208
F6.456790144275409
tp3163
a(F-1.3477589157521877
F5.3004693030578665
tp3164
a(F-1.2110981263454281
F5.8650885251558815
tp3165
a(F-0.9020396273828819
F4.690825856902144
tp3166
a(F0.032243608211706132
F3.412937135690976
tp3167
a(F-0.02674185775184057
F2.8027201805179534
tp3168
a(F0.55165656426498799
F2.3854391218345015
tp3169
a(F0.34168202067639797
F1.6035221834677156
tp3170
a(F1.3863016084255637
F-3.0044549442326796
tp3171
a(F-0.42870522756919804
F-4.753224393947171
tp3172
a(F-0.44645558010586406
F-4.872731001986321
tp3173
a(F-0.54882739417519311
F-4.868962787339473
tp3174
a(F-1.813342708531172
F-6.087330512786559
tp3175
a(F-1.951202509871159
F-6.654580970127352
tp3176
a(F-3.2294109140581693
F-5.875433962848123
tp3177
a(F-3.644927774768263
F-6.105899150725299
tp3178
a(F-3.7301273021029946
F-5.5702163833338245
tp3179
a(F-3.8393276556919176
F-5.5036520199530665
tp3180
a(F-3.8471448766651193
F-5.603081548805496
tp3181
a(F-4.191638746262647
F-5.361022965041461
tp3182
a(F-5.139791402929895
F-5.8313117331190965
tp3183
a(F-5.344536561182991
F-4.580826595591253
tp3184
aa(lp3185
(F-5.477316724724325
F-4.4846856786527205
tp3186
a(F-5.764384137615934
F-4.687954187411269
tp3187
a(F-6.9571574992704015
F-2.930005561096632
tp3188
a(F-6.787909348955495
F-1.181491850485628
tp3189
a(F-7.794147764178028
F1.4110343221914636
tp3190
a(F-6.761531851204406
F3.0228336302092966
tp3191
a(F-6.506240640960108
F4.97200154233456
tp3192
a(F-5.842724287159758
F4.6844396691202945
tp3193
a(F-5.8629865669109655
F4.79576598090766
tp3194
a(F-5.481370746815735
F5.021023621551915
tp3195
a(F-5.068581966495561
F5.665341283248239
tp3196
a(F-4.942060319659365
F5.339364182920077
tp3197
a(F-2.7467376369408854
F6.635204611753913
tp3198
a(F-2.610662313577585
F5.88757087747943
tp3199
a(F-2.2551795686795586
F6.440575162159039
tp3200
a(F-1.2983229180055247
F5.131811100975739
tp3201
a(F-1.2330524110746044
F5.4014786699196655
tp3202
a(F-1.0854431005608713
F4.840639529741363
tp3203
a(F-0.18870619928138943
F3.6141057245943387
tp3204
a(F-0.25659072942891825
F2.911826093276762
tp3205
a(F0.45896923477050677
F2.3955909030570695
tp3206
a(F0.19776266450954338
F1.4228927930427453
tp3207
a(F1.2187442420902173
F-3.080813448415263
tp3208
a(F-1.9186653976331947
F-6.10372555011045
tp3209
a(F-2.043404873022327
F-6.616989922865726
tp3210
a(F-3.3332426312310783
F-5.830754105692155
tp3211
a(F-3.755406749010751
F-6.064906174883345
tp3212
a(F-3.8419692611337126
F-5.520653788784916
tp3213
a(F-4.012049056177993
F-5.416979643885436
tp3214
a(F-4.01962706278956
F-5.5133665350340415
tp3215
a(F-4.276736140522473
F-5.332708866723095
tp3216
a(F-5.258718704186904
F-5.819777448867601
tp3217
a(F-5.477316724724325
F-4.4846856786527205
tp3218
aa(lp3219
(F-5.610096888265655
F-4.388544761714187
tp3220
a(F-5.988748457950734
F-4.656662759273286
tp3221
a(F-7.02951316353623
F-3.122749491824912
tp3222
a(F-6.856131043326251
F-1.3315274678448468
tp3223
a(F-6.904938848029204
F-1.3031510504697703
tp3224
a(F-7.927118641169269
F1.3304473361623082
tp3225
a(F-6.878505322139148
F2.9672168268860215
tp3226
a(F-6.620388611005719
F4.937957654363535
tp3227
a(F-5.9479059258431946
F4.6465098557646165
tp3228
a(F-5.983858125719085
F4.844040728991569
tp3229
a(F-5.488936920720697
F5.136179516411147
tp3230
a(F-5.201552843486809
F5.584754297219082
tp3231
a(F-5.113468311010099
F5.357808622715703
tp3232
a(F-2.8676091957490044
F6.683479359837822
tp3233
a(F-2.7093994428727495
F5.8142332289598535
tp3234
a(F-2.317197050746909
F6.424360180042667
tp3235
a(F-0.40965600677448499
F3.815274313497701
tp3236
a(F-0.48643960110599238
F3.0209320060355704
tp3237
a(F0.36628190527602733
F2.4057426842796357
tp3238
a(F0.053843308342690577
F1.2422634026177768
tp3239
a(F1.0511868757548726
F-3.1571719525978468
tp3240
a(F-2.023988086735219
F-6.12012058743434
tp3241
a(F-2.1356072361734952
F-6.579398875604097
tp3242
a(F-3.4370743484039856
F-5.786074248536186
tp3243
a(F-3.865885723253239
F-6.023913199041386
tp3244
a(F-3.9538112201644324
F-5.471091194236005
tp3245
a(F-4.184770456664069
F-5.330307267817807
tp3246
a(F-4.192109248913997
F-5.423651521262592
tp3247
a(F-4.361833534782296
F-5.304394768404728
tp3248
a(F-5.377646005443911
F-5.808243164616104
tp3249
a(F-5.610096888265655
F-4.388544761714187
tp3250
aa(lp3251
(F-5.742877051806989
F-4.292403844775657
tp3252
a(F-6.213112778285534
F-4.625371331135303
tp3253
a(F-7.101868827802058
F-3.3154934225531942
tp3254
a(F-6.88978176560348
F-1.1244081113847395
tp3255
a(F-7.2110623129562335
F-0.93761849932043084
tp3256
a(F-8.060089518160517
F1.2498603501331491
tp3257
a(F-6.643606025380095
F3.460834522424925
tp3258
a(F-6.934834366215277
F3.3746248600579616
tp3259
a(F-6.73453658105133
F4.903913766392513
tp3260
a(F-6.053087564526635
F4.60858004240894
tp3261
a(F-6.104729684527207
F4.892315477075481
tp3262
a(F-5.496503094625659
F5.251335411270379
tp3263
a(F-5.334523720478053
F5.504167311189926
tp3264
a(F-5.284876302360836
F5.376253062511331
tp3265
a(F-2.9884807545571235
F6.7317541079217325
tp3266
a(F-2.808136572167914
F5.740895580440277
tp3267
a(F-2.3792145328142613
F6.408145197926295
tp3268
a(F-0.63060581426758056
F4.016442902401064
tp3269
a(F-0.71628847278306829
F3.1300379187943808
tp3270
a(F0.27359457578154611
F2.415894465502202
tp3271
a(F-0.090076047824162231
F1.0616340121928065
tp3272
a(F0.88362950941952789
F-3.2335304567804304
tp3273
a(F-2.1293107758372436
F-6.13651562475823
tp3274
a(F-2.227809599324665
F-6.54180782834247
tp3275
a(F-3.5409060655768947
F-5.741394391380217
tp3276
a(F-3.976364697495729
F-5.982920223199431
tp3277
a(F-4.065653179195152
F-5.421528599687097
tp3278
a(F-4.357491857150144
F-5.243634891750179
tp3279
a(F-4.364591435038438
F-5.333936507491141
tp3280
a(F-4.446930929042118
F-5.276080670086358
tp3281
a(F-5.49657330670092
F-5.796708880364608
tp3282
a(F-5.742877051806989
F-4.292403844775657
tp3283
aa(lp3284
(F-5.875657215348319
F-4.196262927837124
tp3285
a(F-6.437477098620327
F-4.594079902997318
tp3286
a(F-7.174224492067886
F-3.5082373532814746
tp3287
a(F-6.923432487880703
F-0.9172887549246358
tp3288
a(F-7.517185777883263
F-0.57208594817109848
tp3289
a(F-8.193060395151758
F1.1692733641039936
tp3290
a(F-6.237664765309919
F4.221429817905118
tp3291
a(F-6.961684738492625
F4.007104806623527
tp3292
a(F-6.848684551096941
F4.86986987842149
tp3293
a(F-6.158269203210075
F4.570650229053264
tp3294
a(F-6.225601243335323
F4.94059022515939
tp3295
a(F-5.504069268530625
F5.3664913061296104
tp3296
a(F-5.467494597469294
F5.423580325160769
tp3297
a(F-5.456284293711569
F5.394697502306959
tp3298
a(F-3.1093523133652425
F6.780028856005641
tp3299
a(F-2.9068737014630788
F5.667557931920701
tp3300
a(F-2.44123201488161
F6.391930215809921
tp3301
a(F-0.85155562176067612
F4.2176114913044245
tp3302
a(F-0.94613734446014242
F3.2391438315531893
tp3303
a(F0.18090724628706845
F2.42604624672477
tp3304
a(F-0.23399540399101326
F0.88100462176784156
tp3305
a(F0.71607214308418499
F-3.309888960963015
tp3306
a(F-2.183915458152198
F-6.104043572955689
tp3307
a(F-2.2101233639903732
F-6.052059175009096
tp3308
a(F-2.3200119624758315
F-6.504216781080841
tp3309
a(F-3.6447377827498038
F-5.696714534224249
tp3310
a(F-4.086843671738215
F-5.941927247357476
tp3311
a(F-4.1774951382258685
F-5.371966005138188
tp3312
a(F-4.448894111814511
F-5.206531560052731
tp3313
a(F-5.615500607957927
F-5.785174596113113
tp3314
a(F-5.875657215348319
F-4.196262927837124
tp3315
aa(lp3316
(F-6.008437378889653
F-4.100122010898591
tp3317
a(F-6.661841418955127
F-4.562788474859333
tp3318
a(F-7.246580156333714
F-3.7009812840097585
tp3319
a(F-6.957083210157929
F-0.71016939846452409
tp3320
a(F-7.823309242810296
F-0.20655339702175724
tp3321
a(F-8.326031272143005
F1.0886863780748346
tp3322
a(F-6.231619647594528
F4.357831434565927
tp3323
a(F-6.346472802143442
F4.988864973243301
tp3324
a(F-3.2302238721733634
F6.828303604089552
tp3325
a(F-3.005610830758245
F5.594220283401125
tp3326
a(F-2.5032494969489605
F6.375715233693551
tp3327
a(F-1.0725054292537717
F4.418780080207789
tp3328
a(F-1.17598621613722
F3.348249744311998
tp3329
a(F0.088219916792587227
F2.436198027947336
tp3330
a(F-0.37791476015786785
F0.70037523134287127
tp3331
a(F0.54851477674883853
F-3.3862474651455976
tp3332
a(F-2.2002316750848507
F-6.034680366139772
tp3333
a(F-2.2724325800445477
F-5.891467070170817
tp3334
a(F-2.4122143256270014
F-6.466625733819216
tp3335
a(F-3.748569499922713
F-5.652034677068282
tp3336
a(F-4.197322645980705
F-5.900934271515518
tp3337
a(F-4.289337097256588
F-5.3224034105892795
tp3338
a(F-4.529517755658063
F-5.175998457698293
tp3339
a(F-5.734427909214936
F-5.773640311861615
tp3340
a(F-6.008437378889653
F-4.100122010898591
tp3341
aa(lp3342
(F-6.962832521142552
F4.835825990450466
tp3343
a(F-6.70422308234204
F4.723747042845897
tp3344
a(F-6.988535110769973
F4.639584753189098
tp3345
a(F-6.962832521142552
F4.835825990450466
tp3346
aa(lp3347
(F-6.1412175424309865
F-4.0039810939600615
tp3348
a(F-6.886205739289924
F-4.53149704672135
tp3349
a(F-7.318935820599542
F-3.893725214738039
tp3350
a(F-7.017948361744445
F-0.78420409116363032
tp3351
a(F-7.209026333008456
F-0.5418875990410843
tp3352
a(F-7.161910010776463
F-0.40352981418012135
tp3353
a(F-8.129432707737323
F0.15897915412757691
tp3354
a(F-8.459002149134246
F1.008099392045679
tp3355
a(F-6.336903163136277
F4.320461359553203
tp3356
a(F-6.467344360951561
F5.037139721327211
tp3357
a(F-3.3510954309814824
F6.876578352173464
tp3358
a(F-3.10434796005341
F5.5208826348815485
tp3359
a(F-2.565266979016309
F6.359500251577181
tp3360
a(F-1.2934552367468672
F4.6199486691111495
tp3361
a(F-1.405835087814296
F3.4573556570708064
tp3362
a(F-0.004467412701892215
F2.4463498091699023
tp3363
a(F-0.52183411632472065
F0.51974584091790277
tp3364
a(F0.38095741041349385
F-3.4626059693281803
tp3365
a(F-2.2165478920175055
F-5.9653171593238525
tp3366
a(F-2.3347417960987222
F-5.73087496533254
tp3367
a(F-2.504416688778168
F-6.4290346865575865
tp3368
a(F-3.8524012170956183
F-5.607354819912315
tp3369
a(F-4.307801620223195
F-5.859941295673561
tp3370
a(F-4.4011790562873045
F-5.272840816040371
tp3371
a(F-4.610141399501607
F-5.1454653553438545
tp3372
a(F-5.853355210471939
F-5.76210602761012
tp3373
a(F-6.1412175424309865
F-4.0039810939600615
tp3374
aa(lp3375
(F-6.273997705972317
F-3.9078401770215265
tp3376
a(F-7.110570059624724
F-4.500205618583366
tp3377
a(F-7.39129148486537
F-4.086469145466322
tp3378
a(F-7.083984003136489
F-0.91165545222052913
tp3379
a(F-7.323073837916372
F-0.60845247344297526
tp3380
a(F-7.184873160096679
F-0.20262411622812238
tp3381
a(F-8.435556172664359
F0.52451170527691637
tp3382
a(F-8.591973026125494
F0.92751240601652185
tp3383
a(F-6.442186678678031
F4.283091284540479
tp3384
a(F-6.5882159197596835
F5.085414469411123
tp3385
a(F-3.471966989789605
F6.924853100257373
tp3386
a(F-3.2030850893485763
F5.4475449863619705
tp3387
a(F-2.6272844610836614
F6.343285269460807
tp3388
a(F-1.5144050442399628
F4.821117258014514
tp3389
a(F-1.6356839594913701
F3.566461569829615
tp3390
a(F-0.097154742196373434
F2.4565015903924703
tp3391
a(F-0.66575347249157524
F0.33911645049293426
tp3392
a(F0.21340004407814917
F-3.538964473510764
tp3393
a(F-2.2328641089501566
F-5.895953952507933
tp3394
a(F-2.3970510121528985
F-5.570282860494262
tp3395
a(F-2.596619051929336
F-6.391443639295958
tp3396
a(F-3.9562329342685274
F-5.562674962756346
tp3397
a(F-4.418280594465685
F-5.8189483198316045
tp3398
a(F-4.513021015318024
F-5.223278221491461
tp3399
a(F-4.690765043345159
F-5.114932252989415
tp3400
a(F-5.972282511728949
F-5.750571743358624
tp3401
a(F-6.273997705972317
F-3.9078401770215265
tp3402
aa(lp3403
(F-6.406777869513647
F-3.811699260082996
tp3404
a(F-7.33493437995952
F-4.468914190445383
tp3405
a(F-7.463647149131198
F-4.279213076194602
tp3406
a(F-7.1500196445285304
F-1.039106813277428
tp3407
a(F-7.437121342824284
F-0.67501734784486445
tp3408
a(F-7.207836309416898
F-0.0017184182761287303
tp3409
a(F-8.709358254025105
F0.87125289558142782
tp3410
a(F-6.547470194219777
F4.245721209527755
tp3411
a(F-6.7090874785678025
F5.133689217495032
tp3412
a(F-3.5928385485977223
F6.9731278483412815
tp3413
a(F-3.301822218643741
F5.374207337842396
tp3414
a(F-2.68930194315101
F6.327070287344437
tp3415
a(F-1.7353548517330566
F5.022285846917875
tp3416
a(F-1.8655328311684443
F3.6755674825884235
tp3417
a(F-0.18984207169085288
F2.4666533716150347
tp3418
a(F-0.80967282865842805
F0.15848706006796753
tp3419
a(F0.045842677742804483
F-3.6153229776933458
tp3420
a(F-2.2491803258828114
F-5.826590745692018
tp3421
a(F-2.4593602282070712
F-5.409690755655988
tp3422
a(F-2.688821415080504
F-6.3538525920343325
tp3423
a(F-4.0600646514414365
F-5.517995105600379
tp3424
a(F-4.528759568708175
F-5.777955343989651
tp3425
a(F-4.624862974348744
F-5.173715626942552
tp3426
a(F-4.771388687188708
F-5.084399150634977
tp3427
a(F-6.091209812985955
F-5.739037459107129
tp3428
a(F-6.406777869513647
F-3.811699260082996
tp3429
aa(lp3430
(F-6.5395580330549805
F-3.7155583431444628
tp3431
a(F-7.530720692022072
F-4.4173870655201
tp3432
a(F-7.216055285920575
F-1.1665581743343267
tp3433
a(F-7.5511688477322
F-0.74158222224675363
tp3434
a(F-7.230799458737117
F0.19918727967586847
tp3435
a(F-8.681075647999904
F1.0423647736467743
tp3436
a(F-6.652753709761534
F4.208351134515031
tp3437
a(F-6.829959037375922
F5.181963965578941
tp3438
a(F-4.9151244522309625
F6.312239751226759
tp3439
a(F-3.6341773787493477
F6.584428797996356
tp3440
a(F-3.4005593479389056
F5.300869689322818
tp3441
a(F-2.7513194252183624
F6.310855305228067
tp3442
a(F-1.956304659226154
F5.223454435821239
tp3443
a(F-2.095381702845522
F3.784673395347234
tp3444
a(F-0.40197392154875544
F2.5629774762982915
tp3445
a(F-0.35418349638933933
F2.209974946728728
tp3446
a(F-0.95359218482528085
F-0.022142330357002749
tp3447
a(F-0.12171468859254198
F-3.6916814818759303
tp3448
a(F-2.2654965428154643
F-5.7572275388761
tp3449
a(F-2.5216694442612475
F-5.249098650817713
tp3450
a(F-2.781023778231674
F-6.316261544772702
tp3451
a(F-4.1638963686143455
F-5.47331524844441
tp3452
a(F-4.639238542950661
F-5.736962368147694
tp3453
a(F-4.736704933379464
F-5.124153032393643
tp3454
a(F-4.852012331032256
F-5.053866048280538
tp3455
a(F-6.210137114242961
F-5.727503174855633
tp3456
a(F-6.5395580330549805
F-3.7155583431444628
tp3457
aa(lp3458
(F-6.672338196596314
F-3.6194174262059313
tp3459
a(F-7.568609835440704
F-4.254055115086584
tp3460
a(F-7.282090927312616
F-1.2940095353912247
tp3461
a(F-7.665216352640115
F-0.80814709664864282
tp3462
a(F-7.253762608057336
F0.40009297762786389
tp3463
a(F-8.652793041974704
F1.213476651712119
tp3464
a(F-6.758037225303283
F4.1709810595023065
tp3465
a(F-6.950830596184041
F5.230238713662851
tp3466
a(F-6.2962642127657595
F5.616611792056323
tp3467
a(F-3.6716201277100833
F6.1743236494861815
tp3468
a(F-3.499296477234072
F5.22753204080324
tp3469
a(F-2.813336907285713
F6.294640323111693
tp3470
a(F-2.1772544667192477
F5.4246230247246
tp3471
a(F-2.325230574522596
F3.8937793081060406
tp3472
a(F-0.82839254524629879
F2.8138971131371733
tp3473
a(F-0.64707435011937875
F1.4745957505046796
tp3474
a(F-1.0975115409921319
F-0.2027717207819677
tp3475
a(F-0.28927205492788488
F-3.768039986058513
tp3476
a(F-2.2818127597481155
F-5.687864332060182
tp3477
a(F-2.5839786603154202
F-5.088506545979438
tp3478
a(F-2.8732261413828404
F-6.278670497511077
tp3479
a(F-4.932635974875804
F-5.023332945926099
tp3480
a(F-6.329064415499971
F-5.7159688906041355
tp3481
a(F-6.672338196596314
F-3.6194174262059313
tp3482
aa(lp3483
(F-4.770039775892457
F-5.568195399652956
tp3484
a(F-4.6402349583392635
F-5.635245217473421
tp3485
a(F-4.749717517193151
F-5.695969392305738
tp3486
a(F-4.770039775892457
F-5.568195399652956
tp3487
aa(lp3488
(F-6.805118360137648
F-3.5232765092674
tp3489
a(F-7.606498978859335
F-4.090723164653063
tp3490
a(F-7.348126568704657
F-1.4214608964481243
tp3491
a(F-7.779263857548031
F-0.87471197105053378
tp3492
a(F-7.276725757377555
F0.60099867557986464
tp3493
a(F-8.624510435949507
F1.3845885297774654
tp3494
a(F-6.863320740845033
F4.1336109844895805
tp3495
a(F-7.03160514885122
F5.058209929163244
tp3496
a(F-3.709062876670817
F5.764218500976
tp3497
a(F-3.5980336065292384
F5.154194392283662
tp3498
a(F-2.8753543893530615
F6.278425340995323
tp3499
a(F-2.398204274212345
F5.625791613627964
tp3500
a(F-2.5550794461996738
F4.002885220864851
tp3501
a(F-1.2548111689438493
F3.0648167499760604
tp3502
a(F-0.93996520384941995
F0.73921655428061683
tp3503
a(F-1.2414308971589882
F-0.38340111120693976
tp3504
a(F-0.45682942126323134
F-3.8443984902410984
tp3505
a(F-2.2981289766807684
F-5.618501125244263
tp3506
a(F-2.6462878763695947
F-4.927914441141156
tp3507
a(F-2.9654285045340103
F-6.241079450249447
tp3508
a(F-5.013259618719353
F-4.992799843571658
tp3509
a(F-6.447991716756977
F-5.70443460635264
tp3510
a(F-6.805118360137648
F-3.5232765092674
tp3511
aa(lp3512
(F-6.937898523678978
F-3.4271355923288676
tp3513
a(F-7.644388122277963
F-3.927391214219549
tp3514
a(F-7.3977408187544675
F-1.379261789504156
tp3515
a(F-7.531490641259051
F-1.4001216162948973
tp3516
a(F-7.893311362455947
F-0.94127684545242118
tp3517
a(F-7.299688906697771
F0.80190437353186006
tp3518
a(F-8.59622782992431
F1.5557004078428118
tp3519
a(F-6.968604256386783
F4.096240909476856
tp3520
a(F-7.069047897811952
F4.648104780653071
tp3521
a(F-6.543502200541759
F4.759778233315748
tp3522
a(F-6.531261613399252
F4.778884436927514
tp3523
a(F-6.525343532037237
F4.76363677733616
tp3524
a(F-3.746505625631551
F5.3541133524658235
tp3525
a(F-3.6967707358244013
F5.080856743764086
tp3526
a(F-2.937371871420412
F6.262210358878951
tp3527
a(F-2.619154081705439
F5.826960202531325
tp3528
a(F-2.784928317876748
F4.111991133623659
tp3529
a(F-1.6812297926413944
F3.3157363868149403
tp3530
a(F-1.2328560575794558
F0.0038373580565664867
tp3531
a(F-1.3853502533258393
F-0.56403050163190649
tp3532
a(F-0.62438678759857602
F-3.92075699442368
tp3533
a(F-2.314445193613423
F-5.549137918428347
tp3534
a(F-2.7085970924237692
F-4.767322336302883
tp3535
a(F-3.0576308676851784
F-6.203488402987818
tp3536
a(F-5.093883262562905
F-4.9622667412172214
tp3537
a(F-6.566919018013984
F-5.692900322101142
tp3538
a(F-6.937898523678978
F-3.4271355923288676
tp3539
aa(lp3540
(F-7.070678687220312
F-3.330994675390336
tp3541
a(F-7.682277265696591
F-3.764059263786029
tp3542
a(F-7.420019783243127
F-1.0546600595583886
tp3543
a(F-7.910161317463746
F-1.1311032825498772
tp3544
a(F-8.007358867363859
F-1.0078417198543122
tp3545
a(F-7.3226520560179935
F1.0028100714838555
tp3546
a(F-8.567945223899113
F1.7268122859081565
tp3547
a(F-7.073887771928536
F4.058870834464132
tp3548
a(F-7.106490646772688
F4.237999632142895
tp3549
a(F-6.935904431957411
F4.2742475772483886
tp3550
a(F-6.664232490390496
F4.698297450898359
tp3551
a(F-6.532884489248772
F4.359885474633835
tp3552
a(F-3.8446215478792887
F4.931115732796327
tp3553
a(F-2.9993893534877607
F6.245995376762579
tp3554
a(F-2.8401038891985344
F6.0281287914346855
tp3555
a(F-3.014777189553824
F4.221097046382468
tp3556
a(F-2.1076484163389395
F3.5666560236538256
tp3557
a(F-1.8832179594488103
F1.908907243842842
tp3558
a(F-1.66789736575587
F1.9535279050073093
tp3559
a(F-1.640661564719391
F1.3265032276946762
tp3560
a(F-1.8098058917425934
F1.3666512267686564
tp3561
a(F-1.5257469113094953
F-0.73154183816748741
tp3562
a(F-1.5292696094926903
F-0.74465989205687499
tp3563
a(F-0.7919441539339207
F-3.997115498606263
tp3564
a(F-2.3307614105460743
F-5.4797747116124285
tp3565
a(F-2.7709063084779455
F-4.6067302314646055
tp3566
a(F-3.1498332308363466
F-6.165897355726194
tp3567
a(F-5.174506906406453
F-4.931733638862782
tp3568
a(F-6.685846319270993
F-5.681366037849647
tp3569
a(F-7.070678687220312
F-3.330994675390336
tp3570
aa(lp3571
(F-6.005536965134038
F-2.3866216555878967
tp3572
a(F-7.7201664091152224
F-3.600727313352511
tp3573
a(F-7.44229874773179
F-0.73005832961261952
tp3574
a(F-8.035655960477143
F-0.82259922762002091
tp3575
a(F-7.345615205338209
F1.2037157694358545
tp3576
a(F-8.539662617873912
F1.897924163973503
tp3577
a(F-6.797203367381741
F4.617710464869198
tp3578
a(F-6.540425446460308
F3.9561341719315006
tp3579
a(F-6.398001383772218
F3.9863979280715256
tp3580
a(F-6.3404059630798955
F4.155527742276629
tp3581
a(F-6.234444519176918
F4.021152203239048
tp3582
a(F-4.20378475249268
F4.452648053184554
tp3583
a(F-3.061406835555113
F6.229780394646209
tp3584
a(F-3.06105369669163
F6.22929738033805
tp3585
a(F-3.2446260612308997
F4.3302029591412765
tp3586
a(F-2.53406704003649
F3.817575660492711
tp3587
a(F-2.259656145770709
F1.7906478921344533
tp3588
a(F-1.7905305100883204
F1.8878643063860352
tp3589
a(F-1.7800117204734036
F1.6456999340152443
tp3590
a(F-2.2553059770213792
F1.7585155022792538
tp3591
a(F-2.200608094092832
F1.354491244878968
tp3592
a(F-2.191910594502204
F1.362871335395079
tp3593
a(F-0.95950152026926716
F-4.073474002788847
tp3594
a(F-2.347077627478729
F-5.410411504796511
tp3595
a(F-3.2231046437987327
F-3.6727779330972723
tp3596
a(F-3.254354443289232
F-3.7641808818361255
tp3597
a(F-2.8616053357538327
F-4.562953421895908
tp3598
a(F-3.2420355939875147
F-6.1283063084645635
tp3599
a(F-5.255130550250001
F-4.901200536508345
tp3600
a(F-6.804773620528
F-5.66983175359815
tp3601
a(F-7.171112839782715
F-3.432407665623881
tp3602
a(F-6.111505730225705
F-3.0302667075675096
tp3603
a(F-5.9652287775127455
F-2.4283822748443713
tp3604
a(F-6.005536965134038
F-2.3866216555878967
tp3605
aa(lp3606
(F-6.181632529139492
F-2.3211517812798483
tp3607
a(F-7.758055552533854
F-3.437395362918995
tp3608
a(F-7.46457771222045
F-0.40545659966685399
tp3609
a(F-8.014171366296488
F-0.4911720661597041
tp3610
a(F-7.368578354658428
F1.404621467387848
tp3611
a(F-8.511380011848715
F2.0690360420388476
tp3612
a(F-6.930174244372985
F4.5371234788400425
tp3613
a(F-6.595486697228232
F3.6748166810519827
tp3614
a(F-6.454453467987811
F4.088962867874741
tp3615
a(F-6.105477708809477
F3.6464075003433614
tp3616
a(F-4.562947957106072
F3.9741803735727927
tp3617
a(F-3.334747086614092
F5.884822601859085
tp3618
a(F-3.474474932907974
F4.439308871900085
tp3619
a(F-2.9604856637340315
F4.068495297331594
tp3620
a(F-2.557961551837934
F1.0952631229350356
tp3621
a(F-2.359467960837547
F1.2865128312124963
tp3622
a(F-2.0876446562506157
F0.087458567821371958
tp3623
a(F-2.0656357943864787
F0.064656656973587801
tp3624
a(F-2.0757614596016367
F0.035039965868440603
tp3625
a(F-1.1270588866046083
F-4.14983250697143
tp3626
a(F-2.363393844411382
F-5.341048297980593
tp3627
a(F-3.2872673179174186
F-3.508509422284483
tp3628
a(F-3.4841259522869397
F-4.084303826070933
tp3629
a(F-3.0574920157438523
F-4.951991280045635
tp3630
a(F-3.334237957138683
F-6.090715261202937
tp3631
a(F-5.33575419409355
F-4.870667434153905
tp3632
a(F-6.923700921785006
F-5.658297469346653
tp3633
a(F-7.012611855037218
F-5.115272171243221
tp3634
a(F-5.731874026189558
F-4.6292079188741075
tp3635
a(F-6.489239023283055
F-4.167547152937613
tp3636
a(F-6.068893084999431
F-2.437953584579784
tp3637
a(F-6.181632529139492
F-2.3211517812798483
tp3638
aa(lp3639
(F-5.980928124502192
F0.15401204950186198
tp3640
a(F-5.9786411760121965
F0.15064146956967228
tp3641
a(F-5.977295086785645
F0.1545786636182207
tp3642
a(F-5.980928124502192
F0.15401204950186198
tp3643
aa(lp3644
(F-6.357728093144942
F-2.255681906971799
tp3645
a(F-7.795944695952485
F-3.274063412485477
tp3646
a(F-7.486856676709113
F-0.08085486972108491
tp3647
a(F-7.992686772115825
F-0.15974490469938374
tp3648
a(F-7.391541503978644
F1.6055271653398489
tp3649
a(F-8.483097405823518
F2.240147920104194
tp3650
a(F-7.063145121364233
F4.456536492810887
tp3651
a(F-6.72092140632985
F3.574813111239127
tp3652
a(F-6.568500972895723
F4.02239799347285
tp3653
a(F-5.9765108984420365
F3.2716627974476697
tp3654
a(F-5.23584784983651
F3.4290466373821786
tp3655
a(F-5.214817219187442
F3.7296213163473695
tp3656
a(F-4.782854806950976
F3.712345883507062
tp3657
a(F-3.6085579308454037
F5.539132734043356
tp3658
a(F-3.7043238045850515
F4.548414784658894
tp3659
a(F-3.386904287431582
F4.31941493417048
tp3660
a(F-2.91531500958304
F0.83603500099109596
tp3661
a(F-2.5270253271728933
F1.2101543270299136
tp3662
a(F-2.2946028491614427
F0.18490314928023999
tp3663
a(F-2.184019052917849
F0.070334668696302671
tp3664
a(F-2.234895581922217
F-0.078474758833335656
tp3665
a(F-1.2946162529399565
F-4.226191011154015
tp3666
a(F-2.379710061344035
F-5.271685091164676
tp3667
a(F-3.3514299920361097
F-3.344240911471692
tp3668
a(F-3.713897461284649
F-4.404426770305745
tp3669
a(F-3.2533786957338737
F-5.341029138195369
tp3670
a(F-3.426440320289851
F-6.053124213941308
tp3671
a(F-6.581441386434225
F-4.1299561056759835
tp3672
a(F-6.1725573924861195
F-2.4475248943151957
tp3673
a(F-6.357728093144942
F-2.255681906971799
tp3674
aa(lp3675
(F-6.190106360643735
F0.16292172708700292
tp3676
a(F-6.126711295000405
F0.069487993449426355
tp3677
a(F-6.07066232751577
F0.23342635418743463
tp3678
a(F-6.190106360643735
F0.16292172708700292
tp3679
aa(lp3680
(F-6.533823657150389
F-2.190212032663749
tp3681
a(F-7.833833839371117
F-3.1107314620519597
tp3682
a(F-7.509135641197776
F0.24374686022468062
tp3683
a(F-7.971202177935169
F0.1716822567609313
tp3684
a(F-7.414504653298863
F1.8064328632918443
tp3685
a(F-8.454814799798321
F2.4112597981695405
tp3686
a(F-7.196115998355474
F4.37594950678173
tp3687
a(F-6.846356115431469
F3.474809541426275
tp3688
a(F-6.682548477803639
F3.9558331190709595
tp3689
a(F-5.847544088074596
F2.8969180945519852
tp3690
a(F-5.29463350857748
F3.0144063239236303
tp3691
a(F-5.24390524762768
F3.7394264625908757
tp3692
a(F-4.827739890046875
F3.722782799897802
tp3693
a(F-4.162206723030028
F4.758114889117163
tp3694
a(F-4.147827694859277
F4.81166045465006
tp3695
a(F-4.13413610040319
F4.801782759946503
tp3696
a(F-3.88236877507671
F5.193442866227635
tp3697
a(F-3.9341726762621256
F4.657520697417702
tp3698
a(F-3.8133229111291236
F4.5703345710093615
tp3699
a(F-3.352101387079937
F1.163535737598762
tp3700
a(F-3.0203934427340755
F0.81987530567062272
tp3701
a(F-2.694582693508238
F1.1337958228473308
tp3702
a(F-2.5015610420722645
F0.28234773073910624
tp3703
a(F-2.3024023114492174
F0.076012680419019318
tp3704
a(F-2.394029704242797
F-0.19198948353511192
tp3705
a(F-1.4621736192752994
F-4.3025495153365965
tp3706
a(F-2.396026278276688
F-5.2023218843487555
tp3707
a(F-3.4155926661547955
F-3.1799724006589027
tp3708
a(F-3.9436689702823564
F-4.7245497145405535
tp3709
a(F-3.4492653757238934
F-5.730066996345097
tp3710
a(F-3.518642683441019
F-6.015533166679682
tp3711
a(F-6.673643749585391
F-4.092365058414355
tp3712
a(F-6.276221699972805
F-2.4570962040506075
tp3713
a(F-6.533823657150389
F-2.190212032663749
tp3714
aa(lp3715
(F-6.393102741544112
F0.16272038301567982
tp3716
a(F-5.60518555250226
F-0.99853789509052504
tp3717
a(F-5.570393357422841
F-0.50127972718326852
tp3718
a(F-5.653808067363855
F-0.44110083120255617
tp3719
a(F-5.535307140399116
F0.00018067093726514827
tp3720
a(F-5.4864912351907975
F0.69786897525988678
tp3721
a(F-6.393102741544112
F0.16272038301567982
tp3722
aa(lp3723
(F-5.630506057625976
F-1.3604244607286695
tp3724
a(F-5.893416603502455
F-1.5465878223547627
tp3725
a(F-5.480831025083397
F-2.3857037468540288
tp3726
a(F-4.701260084643817
F-2.010608231464623
tp3727
a(F-5.673278235163373
F-1.9717343993829788
tp3728
a(F-5.630506057625976
F-1.3604244607286695
tp3729
aa(lp3730
(F-6.21091500933052
F-1.77140410099749
tp3731
a(F-7.871722982789748
F-2.947399511618441
tp3732
a(F-7.531414605686436
F0.5683485901704497
tp3733
a(F-7.949717583754506
F0.50310941822125343
tp3734
a(F-7.437467802619082
F2.0073385612438432
tp3735
a(F-8.42653219377312
F2.582371676234887
tp3736
a(F-7.3290868753467215
F4.2953625207525725
tp3737
a(F-6.9717908245330875
F3.374805971613421
tp3738
a(F-6.796595982711555
F3.8892682446690703
tp3739
a(F-5.718577277707155
F2.522173391656292
tp3740
a(F-5.640437570946258
F2.5387773347374765
tp3741
a(F-5.323151291595305
F3.032361550763099
tp3742
a(F-5.272993276067918
F3.749231608834382
tp3743
a(F-4.872624973142777
F3.733219716288543
tp3744
a(F-4.289059414975306
F4.641039459130443
tp3745
a(F-4.240515024353758
F4.821812235872626
tp3746
a(F-4.239741534826674
F4.821254207848245
tp3747
a(F-4.228167790498212
F4.735765095522714
tp3748
a(F-4.15617961930802
F4.847752998411909
tp3749
a(F-4.192483365380404
F4.472183169000772
tp3750
a(F-3.978542336995474
F2.891914235492104
tp3751
a(F-3.9711621193959523
F2.893482461404755
tp3752
a(F-3.7573159255186432
F1.7185550422574387
tp3753
a(F-3.8150742107912965
F1.6844618669144218
tp3754
a(F-3.630021925073251
F0.31757875710322025
tp3755
a(F-2.8621400598435827
F1.0574373186647463
tp3756
a(F-1.6297309856106459
F-4.378908019519182
tp3757
a(F-2.412342495209341
F-5.132958677532839
tp3758
a(F-3.479755340273485
F-3.015703889846109
tp3759
a(F-4.099706988307226
F-4.829008603145942
tp3760
a(F-4.466148987194305
F-4.449362538706679
tp3761
a(F-3.7589498380627475
F-5.887663097108388
tp3762
a(F-6.765846112736561
F-4.054774011152729
tp3763
a(F-6.21091500933052
F-1.77140410099749
tp3764
aa(lp3765
(F-5.671910003214361
F-1.199581293638519
tp3766
a(F-6.2499569741995735
F-1.608888447665521
tp3767
a(F-4.298761728168014
F-5.577226383824264
tp3768
a(F-6.858048475887731
F-4.017182963891101
tp3769
a(F-6.277495831877502
F-1.6283883361297695
tp3770
a(F-7.909612126208373
F-2.7840675611849246
tp3771
a(F-7.553693570175099
F0.89295032011621522
tp3772
a(F-7.92823298957385
F0.83453657968157202
tp3773
a(F-7.460430951939301
F2.2082442591958404
tp3774
a(F-8.398249587747927
F2.7534835543002316
tp3775
a(F-7.462057752337966
F4.214775534723415
tp3776
a(F-7.09722553363471
F3.2748024018005673
tp3777
a(F-6.910643487619467
F3.822703370267181
tp3778
a(F-5.784624252517123
F2.3947364031304446
tp3779
a(F-5.350260269978595
F3.0704517420654227
tp3780
a(F-5.30208130450816
F3.7590367550778865
tp3781
a(F-4.9175100562386795
F3.743656632679283
tp3782
a(F-4.42999046353933
F4.5020631305961825
tp3783
a(F-4.49621936549536
F3.8169113184355634
tp3784
a(F-4.483954530607587
F3.7263174866021807
tp3785
a(F-4.369020558557075
F3.7217209428775817
tp3786
a(F-4.3265458643613
F2.5636231356780943
tp3787
a(F-4.307095143405412
F2.419950973807296
tp3788
a(F-4.008604868356688
F2.483377312894575
tp3789
a(F-3.8781874843267623
F1.7668297903413492
tp3790
a(F-4.193478103613007
F1.5807221467956438
tp3791
a(F-3.987375382818353
F0.058350635159284181
tp3792
a(F-3.0296974261789273
F0.98107881448216361
tp3793
a(F-1.7972883519459906
F-4.455266523701766
tp3794
a(F-2.428658712141994
F-5.063595470716922
tp3795
a(F-4.173762174998714
F-1.6021150521258827
tp3796
a(F-4.1583007162376475
F-2.023680923907423
tp3797
a(F-5.702366263603611
F-1.9619292531394734
tp3798
a(F-5.602514393189843
F-0.53482302915095303
tp3799
a(F-5.746495396858336
F-0.43094904997998995
tp3800
a(F-5.541952548095864
F0.3307409879445018
tp3801
a(F-5.508817678258204
F0.80431227689911999
tp3802
a(F-6.5960991224444925
F0.16251903894435671
tp3803
a(F-5.671910003214361
F-1.199581293638519
tp3804
aa(lp3805
(F-5.896274323549161
F-1.168289865500535
tp3806
a(F-7.947501269627004
F-2.6207356107514057
tp3807
a(F-7.575972534663762
F1.2175520500619843
tp3808
a(F-7.906748395393187
F1.1659637411418924
tp3809
a(F-7.48339410125952
F2.4091499571478394
tp3810
a(F-8.369966981722723
F2.924595432365578
tp3811
a(F-7.59502862932921
F4.134188548694258
tp3812
a(F-7.222660242736332
F3.174798831987715
tp3813
a(F-7.024690992527383
F3.75613849586529
tp3814
a(F-5.887838740028197
F2.314433583127922
tp3815
a(F-5.377369248361884
F3.108541933367743
tp3816
a(F-5.331169332948399
F3.768841901321391
tp3817
a(F-4.962395139334582
F3.7540935490700242
tp3818
a(F-4.7038013077706395
F4.1563732627804555
tp3819
a(F-4.743532999926565
F3.745340615751001
tp3820
a(F-4.56422842809366
F3.738169704576988
tp3821
a(F-4.499631277381358
F1.9768899588905349
tp3822
a(F-4.04604761731742
F2.073272164384397
tp3823
a(F-3.9990590431348814
F1.8151045384252598
tp3824
a(F-4.483216069810357
F1.5293195583816157
tp3825
a(F-4.447637778048648
F0.55925626650193117
tp3826
a(F-4.344728840563459
F-0.20087748678465189
tp3827
a(F-3.197254792514274
F0.90472031029957911
tp3828
a(F-1.964845718281337
F-4.531625027884349
tp3829
a(F-2.4449749290746468
F-4.9942322639010035
tp3830
a(F-4.154994934402911
F-1.6023412443547755
tp3831
a(F-4.1499686605253565
F-1.6394676642844495
tp3832
a(F-4.372895409133445
F-1.4786388892963052
tp3833
a(F-4.353508585774229
F-2.007232162208016
tp3834
a(F-5.73145429204385
F-1.9521241068959672
tp3835
a(F-5.634635428956841
F-0.56836633111863932
tp3836
a(F-5.8391827263528135
F-0.42079726875742374
tp3837
a(F-5.548597955792616
F0.66130130495174377
tp3838
a(F-5.53114412132561
F0.91075557853835321
tp3839
a(F-6.799095503344873
F0.1623176948730336
tp3840
a(F-5.896274323549161
F-1.168289865500535
tp3841
aa(lp3842
(F-7.520902659925941
F1.2261408319153535
tp3843
a(F-7.2776527896539385
F0.86763116944038288
tp3844
a(F-7.347817651292559
F1.2531354344692538
tp3845
a(F-7.520902659925941
F1.2261408319153535
tp3846
aa(lp3847
(F-4.8385736182732835
F-5.266789670540136
tp3848
a(F-6.950250839038894
F-3.9795919166294738
tp3849
a(F-6.461101710535875
F-1.9668944939275699
tp3850
a(F-4.8385736182732835
F-5.266789670540136
tp3851
aa(lp3852
(F-5.37838550837855
F-4.956352957256011
tp3853
a(F-7.042453202190064
F-3.9420008693678454
tp3854
a(F-6.656988390525893
F-2.355932352077298
tp3855
a(F-5.37838550837855
F-4.956352957256011
tp3856
aa(lp3857
(F-6.120638643883957
F-1.13699843736255
tp3858
a(F-7.985390413045636
F-2.4574036603178895
tp3859
a(F-7.640725204573659
F1.1033551513001054
tp3860
a(F-7.356361118192233
F0.68425000433903627
tp3861
a(F-7.406032638458559
F0.95715844406147532
tp3862
a(F-5.593140247102237
F1.3423808018892203
tp3863
a(F-5.92948014311094
F1.8024179118661827
tp3864
a(F-7.885263801212531
F1.4973909026022074
tp3865
a(F-7.50635725057974
F2.610055655099833
tp3866
a(F-8.341684375697525
F3.0957073104309245
tp3867
a(F-7.727999506320458
F4.053601562665101
tp3868
a(F-7.34809495183795
F3.074795262174863
tp3869
a(F-7.138738497435298
F3.689573621463401
tp3870
a(F-5.991053227539272
F2.234130763125398
tp3871
a(F-5.404478226745169
F3.146632124670065
tp3872
a(F-5.360257361388641
F3.778647047564899
tp3873
a(F-5.007280222430481
F3.764530465460762
tp3874
a(F-4.977612152001946
F3.810683394964734
tp3875
a(F-4.982170507605396
F3.76352625495584
tp3876
a(F-4.759436297630238
F3.7546184662763977
tp3877
a(F-4.678095713448609
F1.5368190456879702
tp3878
a(F-4.670393569781567
F1.5384556778222809
tp3879
a(F-4.677991256541269
F1.53397096596359
tp3880
a(F-4.608174483320074
F-0.36962489279712329
tp3881
a(F-3.3648121588496167
F0.82836180611699639
tp3882
a(F-2.13240308461668
F-4.607983532066932
tp3883
a(F-2.4612911460073015
F-4.924869057085085
tp3884
a(F-4.596434228641822
F-0.68972992136249722
tp3885
a(F-4.54871645531081
F-1.990783400508609
tp3886
a(F-5.760542320484092
F-1.9423189606524618
tp3887
a(F-5.666756464723839
F-0.60190963308632384
tp3888
a(F-5.931870055847295
F-0.41064548753485575
tp3889
a(F-5.555243363489367
F0.9918616219589822
tp3890
a(F-5.553470564393017
F1.0171988801775864
tp3891
a(F-7.0020918842452495
F0.16211635080171227
tp3892
a(F-6.120638643883957
F-1.13699843736255
tp3893
aa(lp3894
(F-6.345002964218757
F-1.1057070092245667
tp3895
a(F-8.023279556464267
F-2.2940717098843706
tp3896
a(F-7.713080868839484
F0.91061122057182331
tp3897
a(F-7.435069446730527
F0.5008688392376861
tp3898
a(F-7.443475387419294
F0.54705329555129545
tp3899
a(F-6.051533330316385
F0.84282771865183648
tp3900
a(F-7.205088265145626
F0.16191500673038917
tp3901
a(F-6.345002964218757
F-1.1057070092245667
tp3902
aa(lp3903
(F-5.918197398483819
F-4.645916243971885
tp3904
a(F-7.134655565341234
F-3.904409822106218
tp3905
a(F-6.852875070515914
F-2.7449702102270326
tp3906
a(F-5.918197398483819
F-4.645916243971885
tp3907
aa(lp3908
(F-3.532369525184963
F0.75200330193441189
tp3909
a(F-2.2999604509520246
F-4.6843420362495145
tp3910
a(F-2.4776073629399527
F-4.855505850269169
tp3911
a(F-4.72520780091126
F-0.39730318753507099
tp3912
a(F-3.532369525184963
F0.75200330193441189
tp3913
aa(lp3914
(F-4.7439243248473915
F-1.9743346388092018
tp3915
a(F-5.78963034892433
F-1.9325138144089555
tp3916
a(F-5.698877500490841
F-0.63545293505401013
tp3917
a(F-6.024557385341776
F-0.40049370631228953
tp3918
a(F-5.586208444058997
F1.2318587505441894
tp3919
a(F-6.171936644834034
F2.0330028072384927
tp3920
a(F-6.1293000838882605
F2.099330079730377
tp3921
a(F-7.863779207031868
F1.8288180640625278
tp3922
a(F-7.529320399899959
F2.8109613530518303
tp3923
a(F-8.313401769672325
F3.2668191884962727
tp3924
a(F-7.860970383311695
F3.9730145766359435
tp3925
a(F-7.473529660939569
F2.9747916923620075
tp3926
a(F-7.2527860023432105
F3.6230087470615118
tp3927
a(F-6.094267715050346
F2.1538279431228737
tp3928
a(F-5.431587205128459
F3.184722315972385
tp3929
a(F-5.389345389828879
F3.7884521938084035
tp3930
a(F-4.954644167166819
F3.771067227975802
tp3931
a(F-4.7439243248473915
F-1.9743346388092018
tp3932
aa(lp3933
(F-6.569367284553554
F-1.0744155810865834
tp3934
a(F-8.061168699882899
F-2.1307397594508544
tp3935
a(F-7.785436533105315
F0.71786728984354298
tp3936
a(F-6.569367284553554
F-1.0744155810865834
tp3937
aa(lp3938
(F-4.939132194383976
F-1.9578858771097938
tp3939
a(F-5.8187183773645685
F-1.9227086681654502
tp3940
a(F-5.730998536257843
F-0.66899623702169464
tp3941
a(F-6.117244714836254
F-0.39034192508972332
tp3942
a(F-5.704505280991977
F1.1466441730302943
tp3943
a(F-5.638219367805284
F0.65702528071705402
tp3944
a(F-5.418433418269117
F3.798257340051908
tp3945
a(F-5.1498520367034
F3.78751598967521
tp3946
a(F-4.939132194383976
F-1.9578858771097938
tp3947
aa(lp3948
(F-7.366833507251126
F3.5564438726596226
tp3949
a(F-6.438507107540133
F2.3791820709215887
tp3950
a(F-7.842294612851212
F2.1602452255228446
tp3951
a(F-7.366833507251126
F3.5564438726596226
tp3952
aa(lp3953
(F-6.458009288589082
F-4.335479530687762
tp3954
a(F-7.2268579284924
F-3.8668187748445906
tp3955
a(F-7.0487617505059355
F-3.13400806837676
tp3956
a(F-6.458009288589082
F-4.335479530687762
tp3957
aa(lp3958
(F-3.699926891520306
F0.67564479775183095
tp3959
a(F-2.4675178172873693
F-4.760700540432097
tp3960
a(F-2.4939235798726074
F-4.786142643453251
tp3961
a(F-4.741524017843915
F-0.32793998071915453
tp3962
a(F-3.699926891520306
F0.67564479775183095
tp3963
aa(lp3964
(F-6.233954126901384
F2.0167878251221207
tp3965
a(F-5.525233840464566
F3.11930365933328
tp3966
a(F-5.702121768942
F1.289361124182852
tp3967
a(F-6.233954126901384
F2.0167878251221207
tp3968
aa(lp3969
(F-7.993941260302943
F3.8924275906067862
tp3970
a(F-7.681276959534813
F3.0868626561534533
tp3971
a(F-8.285119163647131
F3.4379310665616156
tp3972
a(F-7.993941260302943
F3.8924275906067862
tp3973
aa(lp3974
(F-6.793731604888354
F-1.0431241529485993
tp3975
a(F-8.09905784330153
F-1.9674078090173355
tp3976
a(F-7.85779219737114
F0.52512335911525909
tp3977
a(F-6.793731604888354
F-1.0431241529485993
tp3978
aa(lp3979
(F-5.134340063920558
F-1.9414371154103858
tp3980
a(F-5.8478064058048105
F-1.9129035219219448
tp3981
a(F-5.447521446709359
F3.808062486295414
tp3982
a(F-5.345059906239985
F3.803964751374618
tp3983
a(F-5.134340063920558
F-1.9414371154103858
tp3984
aa(lp3985
(F-7.480881012159042
F3.4898789982577316
tp3986
a(F-6.817177783744832
F2.648200404666607
tp3987
a(F-7.820810018670549
F2.4916723869831667
tp3988
a(F-7.480881012159042
F3.4898789982577316
tp3989
aa(lp3990
(F-6.997821178694352
F-4.025042817403634
tp3991
a(F-7.31906029164357
F-3.8292277275829623
tp3992
a(F-7.244648430495957
F-3.5230459265264944
tp3993
a(F-6.997821178694352
F-4.025042817403634
tp3994
aa(lp3995
(F-3.8674842578556508
F0.59928629356924645
tp3996
a(F-2.7866212556191066
F-4.168566091063157
tp3997
a(F-4.757840234776566
F-0.2585767739032363
tp3998
a(F-3.8674842578556508
F0.59928629356924645
tp3999
aa(lp4000
(F-5.855643155315541
F-0.63578911692891715
tp4001
a(F-6.209932044330735
F-0.3801901438671571
tp4002
a(F-5.99739613472202
F0.41126497680623508
tp4003
a(F-5.855643155315541
F-0.63578911692891715
tp4004
aa(lp4005
(F-6.295971608968735
F2.000572843005749
tp4006
a(F-5.799044684695875
F2.773613791517553
tp4007
a(F-5.923071576435095
F1.490529713086218
tp4008
a(F-6.295971608968735
F2.000572843005749
tp4009
aa(lp4010
(F-8.126912137294188
F3.811840604577629
tp4011
a(F-7.987400424461843
F3.452395207302791
tp4012
a(F-8.256836557621931
F3.6090429446269603
tp4013
a(F-8.126912137294188
F3.811840604577629
tp4014
aa(lp4015
(F-7.01809592522315
F-1.0118327248106152
tp4016
a(F-8.136946986720155
F-1.8040758585838184
tp4017
a(F-7.930147861636968
F0.33237942838697876
tp4018
a(F-7.01809592522315
F-1.0118327248106152
tp4019
aa(lp4020
(F-5.329547933457139
F-1.9249883537109795
tp4021
a(F-5.876894434245049
F-1.9030983756784385
tp4022
a(F-5.518313665040651
F3.2218216224512144
tp4023
a(F-5.329547933457139
F-1.9249883537109795
tp4024
aa(lp4025
(F-7.594928517066954
F3.4233141238558424
tp4026
a(F-7.195848459949531
F2.917218738411627
tp4027
a(F-7.7993254244898935
F2.8230995484434835
tp4028
a(F-7.594928517066954
F3.4233141238558424
tp4029
aa(lp4030
(F-4.035041624190995
F0.52292778938666373
tp4031
a(F-3.137780425101127
F-3.4350288978776975
tp4032
a(F-4.774156451709217
F-0.18921356708731985
tp4033
a(F-4.035041624190995
F0.52292778938666373
tp4034
aa(lp4035
(F-6.2820617790130875
F-0.38486948009003186
tp4036
a(F-6.302619373825216
F-0.37003836264459089
tp4037
a(F-6.29028698845206
F-0.32411421941781882
tp4038
a(F-6.2820617790130875
F-0.38486948009003186
tp4039
aa(lp4040
(F-6.357989091036082
F1.9843578608893768
tp4041
a(F-6.072855528927185
F2.4279239237018295
tp4042
a(F-6.144021383928191
F1.6916983019895788
tp4043
a(F-6.357989091036082
F1.9843578608893768
tp4044
aa(lp4045
(F-7.24246024555795
F-0.9805412966726319
tp4046
a(F-8.174836130138786
F-1.6407439081502995
tp4047
a(F-8.0025035259028
F0.13963549765869487
tp4048
a(F-7.24246024555795
F-0.9805412966726319
tp4049
aa(lp4050
(F-5.524755802993724
F-1.9085395920115733
tp4051
a(F-5.905982462685287
F-1.8932932294349332
tp4052
a(F-5.656231073617043
F1.676211881607216
tp4053
a(F-5.524755802993724
F-1.9085395920115733
tp4054
aa(lp4055
(F-7.70897602197487
F3.3567492494539533
tp4056
a(F-7.57451913615423
F3.1862370721566435
tp4057
a(F-7.777840830309231
F3.154526709903804
tp4058
a(F-7.70897602197487
F3.3567492494539533
tp4059
aa(lp4060
(F-4.202598990526344
F0.44656928520407924
tp4061
a(F-3.488939594583149
F-2.7014917046922315
tp4062
a(F-4.790472668641872
F-0.11985036027140161
tp4063
a(F-4.202598990526344
F0.44656928520407924
tp4064
aa(lp4065
(F-6.420006573103432
F1.9681428787730066
tp4066
a(F-6.346666373158495
F2.0822340558861026
tp4067
a(F-6.3649711914212865
F1.8928668908929431
tp4068
a(F-6.420006573103432
F1.9681428787730066
tp4069
aa(lp4070
(F-7.466824565892747
F-0.94924986853464688
tp4071
a(F-8.212725273557417
F-1.4774119577167824
tp4072
a(F-8.074859190168624
F-0.053108433069585459
tp4073
a(F-7.466824565892747
F-0.94924986853464688
tp4074
aa(lp4075
(F-5.719963672530305
F-1.8920908303121653
tp4076
a(F-5.935070491125529
F-1.8834880831914278
tp4077
a(F-5.794148482193432
F0.13060214076322829
tp4078
a(F-5.719963672530305
F-1.8920908303121653
tp4079
aa(lp4080
(F-4.370156356861688
F0.37021078102149652
tp4081
a(F-3.840098764065168
F-1.96795451150677
tp4082
a(F-4.806788885574527
F-0.05048715345548338
tp4083
a(F-4.370156356861688
F0.37021078102149652
tp4084
aa(lp4085
(F-7.691188886227547
F-0.91795844039666363
tp4086
a(F-8.250614416976049
F-1.3140800072832635
tp4087
a(F-8.147214854434452
F-0.24585236379786757
tp4088
a(F-7.691188886227547
F-0.91795844039666363
tp4089
aa(lp4090
(F-5.9151715420668864
F-1.8756420686127573
tp4091
a(F-5.964158519565771
F-1.8736829369479215
tp4092
a(F-5.93206589076982
F-1.41500760008077
tp4093
a(F-5.9151715420668864
F-1.8756420686127573
tp4094
aa(lp4095
(F-4.537713723197033
F0.2938522768389138
tp4096
a(F-4.191257933547192
F-1.2344173183213059
tp4097
a(F-4.823105102507178
F0.018876053360434852
tp4098
a(F-4.537713723197033
F0.2938522768389138
tp4099
aa(lp4100
(F-7.915553206562343
F-0.88666701225868039
tp4101
a(F-8.28850356039468
F-1.1507480568497472
tp4102
a(F-8.219570518700284
F-0.43859629452614968
tp4103
a(F-7.915553206562343
F-0.88666701225868039
tp4104
aa(lp4105
(F-4.705271089532378
F0.2174937726563293
tp4106
a(F-4.542417103029209
F-0.50088012513584879
tp4107
a(F-4.839421319439829
F0.088239260176351308
tp4108
a(F-4.705271089532378
F0.2174937726563293
tp4109
aa(lp4110
(F-8.139917526897143
F-0.85537558412069536
tp4111
a(F-8.326392703813312
F-0.98741610641622835
tp4112
a(F-8.291926182966112
F-0.63134022525443179
tp4113
a(F-8.139917526897143
F-0.85537558412069536
tp4114
aa.