(lp0
(lp1
(F8.30160929570205
F2.7434678179024843
tp2
a(F8.297792157367962
F2.472603874830524
tp3
a(F8.304188047523271
F2.3157498619812937
tp4
a(F8.30160929570205
F2.7434678179024843
tp5
aa(lp6
(F8.149344441665281
F2.9639062781423924
tp7
a(F8.1417101649971
F2.42217839199847
tp8
a(F8.154501945307715
F2.1084703663000077
tp9
a(F8.149344441665281
F2.9639062781423924
tp10
aa(lp11
(F7.997079587628507
F3.1843447383822987
tp12
a(F7.985628172626239
F2.371752909166414
tp13
a(F8.004815843092157
F1.90119087061872
tp14
a(F7.997079587628507
F3.1843447383822987
tp15
aa(lp16
(F7.844814733591732
F3.4047831986222086
tp17
a(F7.8295461802553765
F2.32132742633436
tp18
a(F7.855129740876603
F1.6939113749374357
tp19
a(F7.844814733591732
F3.4047831986222086
tp20
aa(lp21
(F7.692549879554961
F3.625221658862113
tp22
a(F7.673464187884517
F2.270901943502306
tp23
a(F7.705443638661047
F1.4866318792561497
tp24
a(F7.692549879554961
F3.625221658862113
tp25
aa(lp26
(F7.5402850255181875
F3.845660119102021
tp27
a(F7.5173821955136555
F2.220476460670252
tp28
a(F7.555757536445491
F1.279352383574862
tp29
a(F7.5402850255181875
F3.845660119102021
tp30
aa(lp31
(F7.388020171481417
F4.066098579341926
tp32
a(F7.361300203142793
F2.170050977838196
tp33
a(F7.406071434229937
F1.0720728878935777
tp34
a(F7.388020171481417
F4.066098579341926
tp35
aa(lp36
(F7.235755317444644
F4.286537039581834
tp37
a(F7.205218210771934
F2.119625495006142
tp38
a(F7.25638533201438
F0.86479339221229168
tp39
a(F7.235755317444644
F4.286537039581834
tp40
aa(lp41
(F7.083490463407871
F4.506975499821738
tp42
a(F7.049136218401071
F2.069200012174086
tp43
a(F7.106699229798827
F0.65751389653100567
tp44
a(F7.083490463407871
F4.506975499821738
tp45
aa(lp46
(F6.9312256093711
F4.7274139600616465
tp47
a(F6.89305422603021
F2.018774529342032
tp48
a(F6.95701312758327
F0.45023440084971966
tp49
a(F6.9312256093711
F4.7274139600616465
tp50
aa(lp51
(F6.7789607553343245
F4.947852420301556
tp52
a(F6.736972233659348
F1.968349046509978
tp53
a(F6.807327025367714
F0.24295490516843188
tp54
a(F6.7789607553343245
F4.947852420301556
tp55
aa(lp56
(F6.626695901297554
F5.168290880541463
tp57
a(F6.580890241288486
F1.9179235636779222
tp58
a(F6.65764092315216
F0.03567540948714587
tp59
a(F6.626695901297554
F5.168290880541463
tp60
aa(lp61
(F6.474431047260783
F5.388729340781367
tp62
a(F6.424808248917627
F1.867498080845868
tp63
a(F6.507954820936606
F-0.17160408619413659
tp64
a(F6.474431047260783
F5.388729340781367
tp65
aa(lp66
(F6.322166193224009
F5.609167801021272
tp67
a(F6.268726256546767
F1.8170725980138123
tp68
a(F6.35826871872105
F-0.37888358187542259
tp69
a(F6.322166193224009
F5.609167801021272
tp70
aa(lp71
(F6.097706844931585
F-4.701847054725718
tp72
a(F6.105183136279742
F-5.022735871499221
tp73
a(F6.153648984225805
F-0.35820650873101734
tp74
a(F6.150859865612804
F-0.23849515320885395
tp75
a(F6.097706844931585
F-4.701847054725718
tp76
aa(lp77
(F6.169901339187239
F5.82960626126118
tp78
a(F6.112644264175905
F1.7666471151817582
tp79
a(F6.208582616505495
F-0.5861630775567086
tp80
a(F6.169901339187239
F5.82960626126118
tp81
aa(lp82
(F5.943764773154306
F-4.695153185535102
tp83
a(F5.976800246824762
F-6.113063960277409
tp84
a(F6.025266094770825
F-1.4485345975092034
tp85
a(F5.996917793835523
F-0.2318012840182373
tp86
a(F5.943764773154306
F-4.695153185535102
tp87
aa(lp88
(F6.0176364851504625
F6.050044721501088
tp89
a(F5.956562271805041
F1.7162216323497042
tp90
a(F6.055208188637964
F-0.70298938139778677
tp91
a(F6.057409422382273
F-0.54678994626548949
tp92
a(F6.0176364851504625
F6.050044721501088
tp93
aa(lp94
(F5.870539290141112
F-0.56616446785737651
tp95
a(F5.873747576288809
F-1.5458617078509453
tp96
a(F5.842975722058244
F-0.22510741482761887
tp97
a(F5.789822701377026
F-4.688459316344485
tp98
a(F5.848417357369785
F-7.203392049055589
tp99
a(F5.896883205315848
F-2.5388626862873815
tp100
a(F5.879058517177058
F-1.7738118315449114
tp101
a(F5.892819388262878
F-0.59874551880464821
tp102
a(F5.899126196267105
F-0.75341486422983905
tp103
a(F5.905144568345502
F-0.32635148602558139
tp104
a(F5.865371631113692
F6.270483181740994
tp105
a(F5.800480279434181
F1.66579614951765
tp106
a(F5.884699952271231
F-0.39962294377016683
tp107
a(F5.870539290141112
F-0.56616446785737651
tp108
aa(lp109
(F5.9306884216461055
F0.03322535772762869
tp110
a(F5.933795433352033
F0.13467878084578366
tp111
a(F5.929888773256119
F0.17653067089172048
tp112
a(F5.9306884216461055
F0.03322535772762869
tp113
aa(lp114
(F5.655818379900724
F-2.6655314435227764
tp115
a(F5.65273253208874
F-2.2444224905028483
tp116
a(F5.652312462634507
F-2.686727321765935
tp117
a(F5.655818379900724
F-2.6655314435227764
tp118
aa(lp119
(F5.77550763902988
F0.12921262821137702
tp120
a(F5.752356089123706
F-0.14306944242389008
tp121
a(F5.752879714308729
F-0.10591302578567685
tp122
a(F5.713106777076921
F6.490921641980901
tp123
a(F5.64439828706332
F1.6153706666855943
tp124
a(F5.7278518525997635
F-0.43126026710367782
tp125
a(F5.716689884478068
F-0.56253457940057672
tp126
a(F5.719901650715849
F-1.5432945159531952
tp127
a(F5.689033650280964
F-0.21841354563700222
tp128
a(F5.635880629599746
F-4.681765447153866
tp129
a(F5.710465223826228
F-7.883000000000003
tp130
a(F5.7341497714667975
F-5.894167203796197
tp131
a(F5.734330023858767
F-5.949209915943854
tp132
a(F5.75563048588095
F-5.698698225435348
tp133
a(F5.811139698588464
F-0.95866356537971953
tp134
a(F5.806387827082323
F0.49239010784455495
tp135
a(F5.78677455294079
F0.26172119294094998
tp136
a(F5.787467658635349
F0.28435321108284839
tp137
a(F5.773826499115936
F0.43049039586184357
tp138
a(F5.77550763902988
F0.12921262821137702
tp139
aa(lp140
(F5.620892467773206
F0.12383645693137524
tp141
a(F5.596743668783924
F-0.16017411768693002
tp142
a(F5.600614860271956
F0.11452543445423125
tp143
a(F5.5608419230401465
F6.711360102220809
tp144
a(F5.488316294692457
F1.5649451838535402
tp145
a(F5.571003752928297
F-0.46289759043718703
tp146
a(F5.562840478815024
F-0.55890469094377693
tp147
a(F5.566055725142888
F-1.5407273240554442
tp148
a(F5.5350915785036845
F-0.21171967644638379
tp149
a(F5.505804308669325
F-2.671022832317753
tp150
a(F5.497869188321201
F-1.5881598962690084
tp151
a(F5.496781473540319
F-2.733450270923699
tp152
a(F5.505703216771364
F-2.679511695400529
tp153
a(F5.481938557822466
F-4.67507157796325
tp154
a(F5.556523152048947
F-7.876306130809386
tp155
a(F5.580272509904225
F-5.882031107779177
tp156
a(F5.580480618195723
F-5.945580027487053
tp157
a(F5.670178560799978
F-4.890655340241917
tp158
a(F5.652538421419279
F0.49601999630135651
tp159
a(F5.637690547591369
F0.32139627362279732
tp160
a(F5.6411398839186635
F0.43402764131991489
tp161
a(F5.617764224975753
F0.68445012083196666
tp162
a(F5.620892467773206
F0.12383645693137524
tp163
aa(lp164
(F5.466277296516532
F0.11846028565137523
tp165
a(F5.441131248444143
F-0.17727879294996995
tp166
a(F5.4483500062351835
F0.33496389469413934
tp167
a(F5.410228757651914
F6.6578455256623705
tp168
a(F5.406132194702385
F6.758310405752583
tp169
a(F5.332234302321595
F1.5145197010214844
tp170
a(F5.414155653256829
F-0.49453491377069803
tp171
a(F5.408991073151979
F-0.55527480248697536
tp172
a(F5.412209799569927
F-1.5381601321576932
tp173
a(F5.381149506726405
F-0.20502580725576713
tp174
a(F5.354238649674295
F-2.464777434831909
tp175
a(F5.3430058445536615
F-0.93189730203516952
tp176
a(F5.3412504844461335
F-2.7801732200814637
tp177
a(F5.3511989368680375
F-2.720027423637738
tp178
a(F5.327996486045184
F-4.668377708772633
tp179
a(F5.402581080271666
F-7.869612261618767
tp180
a(F5.426395248341653
F-5.869895011762158
tp181
a(F5.426631212532679
F-5.941950139030252
tp182
a(F5.516329155136934
F-4.887025451785117
tp183
a(F5.498689015756234
F0.49964988475815808
tp184
a(F5.4886065422419446
F0.38107135430464645
tp185
a(F5.494812109201979
F0.58370207155698139
tp186
a(F5.46170195083557
F0.93840984580208797
tp187
a(F5.466277296516532
F0.11846028565137523
tp188
aa(lp189
(F5.311662125259862
F0.11308411437137522
tp190
a(F5.28551882810436
F-0.19438346821300989
tp191
a(F5.296085152198411
F0.55540235493404388
tp192
a(F5.260542655436359
F6.450566029981086
tp193
a(F5.250050202331523
F6.707884922920529
tp194
a(F5.176152309950735
F1.4640942181894303
tp195
a(F5.257307553585363
F-0.52617223710420902
tp196
a(F5.255141667488935
F-0.55164491403017557
tp197
a(F5.258363873996966
F-1.5355929402599422
tp198
a(F5.227207434949125
F-0.19833193806515048
tp199
a(F5.202672990679267
F-2.2585320373460727
tp200
a(F5.188142500786124
F-0.27563470780133414
tp201
a(F5.185719495351949
F-2.8268961692392285
tp202
a(F5.1966946569647146
F-2.7605431518749475
tp203
a(F5.174054414267907
F-4.661683839582015
tp204
a(F5.248639008494387
F-7.862918392428152
tp205
a(F5.272517986779081
F-5.857758915745138
tp206
a(F5.272781806869635
F-5.938320250573452
tp207
a(F5.362479749473891
F-4.883395563328317
tp208
a(F5.3448396100931905
F0.50327977321495787
tp209
a(F5.339522536892528
F0.4407464349864938
tp210
a(F5.348484334485293
F0.7333765017940479
tp211
a(F5.30563967669539
F1.1923695707722075
tp212
a(F5.311662125259862
F0.11308411437137522
tp213
aa(lp214
(F5.157046954003189
F0.10770794309137699
tp215
a(F5.129906407764578
F-0.21148814347604805
tp216
a(F5.143820298161639
F0.7758408151739502
tp217
a(F5.1108565532208035
F6.243286534299802
tp218
a(F5.0939682099606625
F6.657459440088475
tp219
a(F5.020070317579875
F1.4136687353573763
tp220
a(F5.101399861957161
F-0.58087230412468216
tp221
a(F5.104517948424006
F-1.533025748362192
tp222
a(F5.073265363171846
F-0.19163806887453205
tp223
a(F5.051107331684237
F-2.0522866398602355
tp224
a(F5.033279157018587
F0.38062788643250123
tp225
a(F5.030188506257764
F-2.8736191183969915
tp226
a(F5.042190377061388
F-2.801058880112155
tp227
a(F5.020112342490626
F-4.654989970391398
tp228
a(F5.094696936717109
F-7.856224523237534
tp229
a(F5.118640725216512
F-5.845622819728121
tp230
a(F5.1189324012065915
F-5.934690362116651
tp231
a(F5.2086303438108486
F-4.879765674871517
tp232
a(F5.190990204430149
F0.50690966167175766
tp233
a(F5.190438531543106
F0.50042151566834114
tp234
a(F5.20215655976861
F0.88305093203111262
tp235
a(F5.149577402555208
F1.4463292957423288
tp236
a(F5.157046954003189
F0.10770794309137699
tp237
aa(lp238
(F4.947937892417497
F-0.6955517195369616
tp239
a(F4.950672022851047
F-1.530458556464442
tp240
a(F4.919323291394566
F-0.1849441996839154
tp241
a(F4.899541672689209
F-1.8460412423743975
tp242
a(F4.878661208636591
F1.0034027002645765
tp243
a(F4.947937892417497
F-0.6955517195369616
tp244
aa(lp245
(F5.002431782746517
F0.10233177181137521
tp246
a(F4.974293987424798
F-0.22859281873908799
tp247
a(F4.9915554441248675
F0.9962792754138583
tp248
a(F4.961170451005249
F6.036007038618514
tp249
a(F4.937886217589803
F6.607033957256419
tp250
a(F4.8639883252090135
F1.3632432525253204
tp251
a(F4.878390318347121
F1.0100460646616263
tp252
a(F4.874657517163578
F-2.9203420675547562
tp253
a(F4.887686097158063
F-2.841574608349365
tp254
a(F4.866170270713347
F-4.6482961012007795
tp255
a(F4.940754864939828
F-7.849530654046916
tp256
a(F4.964763463653941
F-5.833486723711101
tp257
a(F4.96508299554355
F-5.93106047365985
tp258
a(F5.054780938147804
F-4.876135786414715
tp259
a(F5.037401240807481
F0.43100975247753937
tp260
a(F5.055828785051925
F1.0327253622681791
tp261
a(F4.993515128415026
F1.7002890207124501
tp262
a(F5.002431782746517
F0.10233177181137521
tp263
aa(lp264
(F4.79447592287783
F-0.81023113494924104
tp265
a(F4.796826097278086
F-1.52789136456669
tp266
a(F4.765381219617286
F-0.17825033049329697
tp267
a(F4.74797601369418
F-1.639795844888556
tp268
a(F4.730377923891662
F0.7617202451484566
tp269
a(F4.79447592287783
F-0.81023113494924104
tp270
aa(lp271
(F4.847816611489843
F0.096955600531376973
tp272
a(F4.818681567085015
F-0.24569749400212793
tp273
a(F4.839290590088095
F1.2167177356537664
tp274
a(F4.811484348789693
F5.8287275429372265
tp275
a(F4.781804225218941
F6.556608474424365
tp276
a(F4.707906332838152
F1.3128177696932664
tp277
a(F4.722843351404446
F0.94649951762277951
tp278
a(F4.719126528069391
F-2.967065016712519
tp279
a(F4.733181817254739
F-2.8820903365865753
tp280
a(F4.712228198936066
F-4.641602232010163
tp281
a(F4.786812793162548
F-7.842836784856299
tp282
a(F4.810886202091369
F-5.821350627694082
tp283
a(F4.811233589880505
F-5.927430585203051
tp284
a(F4.900931532484759
F-4.8725058979579154
tp285
a(F4.883846374979415
F0.34469758149366214
tp286
a(F4.909501010335239
F1.1823997925052474
tp287
a(F4.837452854274844
F1.9542487456825715
tp288
a(F4.847816611489843
F0.096955600531376973
tp289
aa(lp290
(F4.69320144023317
F0.091579429251376965
tp291
a(F4.663069146745232
F-0.26280216926516786
tp292
a(F4.686071081341354
F1.3694139459718446
tp293
a(F4.69320144023317
F0.091579429251376965
tp294
aa(lp295
(F4.641013953338163
F-0.9249105503615187
tp296
a(F4.6429801717051244
F-1.525324172668939
tp297
a(F4.612964206584207
F-0.23701328650489728
tp298
a(F4.641013953338163
F-0.9249105503615187
tp299
aa(lp300
(F4.59641035469915
F-1.4335504474027179
tp301
a(F4.582094639146731
F0.52003779003234207
tp302
a(F4.611180557522488
F-0.19327074151868828
tp303
a(F4.59641035469915
F-1.4335504474027179
tp304
aa(lp305
(F4.747082126821715
F-4.8688760095011165
tp306
a(F4.7302915091513515
F0.25838541050978669
tp307
a(F4.763173235618552
F1.3320742227423121
tp308
a(F4.682445100157635
F2.1969114407168444
tp309
a(F4.661798246574137
F5.621448047255942
tp310
a(F4.625722232848078
F6.506182991592311
tp311
a(F4.55182434046729
F1.2623922868612123
tp312
a(F4.567296384461771
F0.88295297058393452
tp313
a(F4.563595538975206
F-3.013787965870284
tp314
a(F4.578677537351411
F-2.9226060648237837
tp315
a(F4.5582861271587864
F-4.634908362819545
tp316
a(F4.6328707213852685
F-7.8361429156656826
tp317
a(F4.657008940528796
F-5.809214531677064
tp318
a(F4.65738418421746
F-5.92380069674625
tp319
a(F4.747082126821715
F-4.8688760095011165
tp320
aa(lp321
(F4.538586268976498
F0.08620325797137518
tp322
a(F4.507456726405451
F-0.27990684452820602
tp323
a(F4.531219925928018
F1.4063285913757753
tp324
a(F4.538586268976498
F0.08620325797137518
tp325
aa(lp326
(F4.4875519837984985
F-1.039589965773799
tp327
a(F4.489134246132164
F-1.522756980771188
tp328
a(F4.464979690454356
F-0.48602279931750658
tp329
a(F4.4875519837984985
F-1.039589965773799
tp330
aa(lp331
(F4.444844695704118
F-1.2273050499168763
tp332
a(F4.433811354401801
F0.27835533491622755
tp333
a(F4.4562283173091775
F-0.27140247870060641
tp334
a(F4.444844695704118
F-1.2273050499168763
tp335
aa(lp336
(F4.593232721158671
F-4.865246121044315
tp337
a(F4.57673664332329
F0.17207323952590947
tp338
a(F4.616845460901868
F1.4817486529793786
tp339
a(F4.530226397379162
F2.409695142673815
tp340
a(F4.512112144358582
F5.414168551574658
tp341
a(F4.469640240477219
F6.455757508760257
tp342
a(F4.416017620231598
F2.650699088983025
tp343
a(F4.413474043402701
F2.6353212746555457
tp344
a(F4.413305897920022
F2.458275410943914
tp345
a(F4.396879818922221
F1.2926816762808926
tp346
a(F4.397648262375631
F1.1652258038586965
tp347
a(F4.411749417519095
F0.81940642354508775
tp348
a(F4.40806454988102
F-3.0605109150280487
tp349
a(F4.424173257448086
F-2.963121793060992
tp350
a(F4.404344055381507
F-4.628214493628925
tp351
a(F4.4789286496079885
F-7.829449046475064
tp352
a(F4.503131678966225
F-5.797078435660043
tp353
a(F4.503534778554417
F-5.920170808289448
tp354
a(F4.593232721158671
F-4.865246121044315
tp355
aa(lp356
(F4.383971097719825
F0.080827086691375172
tp357
a(F4.351844306065669
F-0.29701151979124596
tp358
a(F4.376368770514679
F1.443243236779706
tp359
a(F4.383971097719825
F0.080827086691375172
tp360
aa(lp361
(F4.33409001425883
F-1.1542693811860776
tp362
a(F4.335288320559205
F-1.520189788873437
tp363
a(F4.316995174324504
F-0.73503231213011944
tp364
a(F4.33409001425883
F-1.1542693811860776
tp365
aa(lp366
(F4.293279036709089
F-1.0210596524310374
tp367
a(F4.28552806965687
F0.03667287980010947
tp368
a(F4.3012760770958645
F-0.34953421588252453
tp369
a(F4.293279036709089
F-1.0210596524310374
tp370
aa(lp371
(F4.439383315495627
F-4.861616232587514
tp372
a(F4.423181777495227
F0.085761068542032248
tp373
a(F4.4705176861851825
F1.6314230832164451
tp374
a(F4.378007694600688
F2.622478844630791
tp375
a(F4.362426042143026
F5.2068890558933685
tp376
a(F4.3135582481063555
F6.4053320259282
tp377
a(F4.259941347855662
F2.600679496701547
tp378
a(F4.257943054308514
F2.588598325497781
tp379
a(F4.257810955278048
F2.4495069471738447
tp380
a(F4.244614964885448
F1.5131201365208007
tp381
a(F4.247962160160075
F0.95794630817740867
tp382
a(F4.256202450576417
F0.75585987650624098
tp383
a(F4.2525335607868335
F-3.1072338641858117
tp384
a(F4.269668977544761
F-3.0036375212982023
tp385
a(F4.250401983604227
F-4.621520624438312
tp386
a(F4.324986577830709
F-7.822755177284447
tp387
a(F4.349254417403653
F-5.784942339643023
tp388
a(F4.349685372891373
F-5.916540919832649
tp389
a(F4.439383315495627
F-4.861616232587514
tp390
aa(lp391
(F4.229355926463153
F0.075450915411378716
tp392
a(F4.196231885725887
F-0.3141161950542859
tp393
a(F4.2215176151013445
F1.4801578821836365
tp394
a(F4.229355926463153
F0.075450915411378716
tp395
aa(lp396
(F4.180628044719166
F-1.268948796598357
tp397
a(F4.181442394986244
F-1.517622596975686
tp398
a(F4.169010658194654
F-0.98404182494272874
tp399
a(F4.180628044719166
F-1.268948796598357
tp400
aa(lp401
(F4.14171337771406
F-0.81481425494519755
tp402
a(F4.137244784911941
F-0.20500957531600328
tp403
a(F4.146323836882553
F-0.42766595306444266
tp404
a(F4.14171337771406
F-0.81481425494519755
tp405
aa(lp406
(F4.285533909832584
F-4.857986344130714
tp407
a(F4.269626911667163
F-0.00055110244184497503
tp408
a(F4.321663820135789
F1.6986129150455458
tp409
a(F4.321013682621564
F1.8151243233624577
tp410
a(F4.225788991822216
F2.835262546587767
tp411
a(F4.212739939927473
F4.9996095602120825
tp412
a(F4.157476255735496
F6.354906543096147
tp413
a(F4.103865075479727
F2.550659904420069
tp414
a(F4.102412065214329
F2.541875376340018
tp415
a(F4.102316012636072
F2.440738483403777
tp416
a(F4.092350110848676
F1.7335585967607052
tp417
a(F4.0982760579445205
F0.75066681249612444
tp418
a(F4.100655483633744
F0.69231332946739421
tp419
a(F4.09700257169265
F-3.1539568133435747
tp420
a(F4.115164697641436
F-3.044153249535409
tp421
a(F4.096459911826948
F-4.614826755247693
tp422
a(F4.17104450605343
F-7.816061308093829
tp423
a(F4.195377155841082
F-5.772806243626005
tp424
a(F4.19583596722833
F-5.912911031375847
tp425
a(F4.285533909832584
F-4.857986344130714
tp426
aa(lp427
(F4.074740755206479
F0.070074744131376931
tp428
a(F4.040619465386106
F-0.33122087031732583
tp429
a(F4.066666459688007
F1.5170725275875672
tp430
a(F4.074740755206479
F0.070074744131376931
tp431
aa(lp432
(F3.9901477187190295
F-0.60856885745935863
tp433
a(F3.9889615001670116
F-0.44669203043212136
tp434
a(F3.9913715966692394
F-0.50579769024636256
tp435
a(F3.9901477187190295
F-0.60856885745935863
tp436
aa(lp437
(F4.13168450416954
F-4.854356455673913
tp438
a(F4.1160720458391
F-0.086863273425722198
tp439
a(F4.167594086068252
F1.5954887232863086
tp440
a(F4.1649514084813815
F2.0690840483325807
tp441
a(F4.073570289043742
F3.048046248544738
tp442
a(F4.063053837711917
F4.792330064530798
tp443
a(F4.0013942633646336
F6.304481060264093
tp444
a(F3.9477888031037907
F2.500640312138591
tp445
a(F3.9468810761201425
F2.495152427182255
tp446
a(F3.9468210699940958
F2.4319700196337095
tp447
a(F3.940085256811903
F1.953997057000615
tp448
a(F3.9455122436084338
F1.05386402352093
tp449
a(F3.9414715825984636
F-3.2006797625013395
tp450
a(F3.9606604177381115
F-3.084668977772619
tp451
a(F3.9425178400496677
F-4.608132886057074
tp452
a(F4.017102434276149
F-7.809367438903212
tp453
a(F4.041499894278511
F-5.760670147608985
tp454
a(F4.0419865615652855
F-5.909281142919047
tp455
a(F4.13168450416954
F-4.854356455673913
tp456
aa(lp457
(F4.026906311538532
F-1.3043055735711961
tp458
a(F4.027596469413284
F-1.515055405077935
tp459
a(F4.0210261420648
F-1.2330513377553407
tp460
a(F4.026142287816768
F-1.3585206582144966
tp461
a(F4.026906311538532
F-1.3043055735711961
tp462
aa(lp463
(F3.920125583949808
F0.064698572851375147
tp464
a(F3.885007045046324
F-0.34832554558036577
tp465
a(F3.911815304274672
F1.553987172991496
tp466
a(F3.920125583949808
F0.064698572851375147
tp467
aa(lp468
(F3.8727795685363127
F-1.2159866601236935
tp469
a(F3.8737505438403232
F-1.512488213180184
tp470
a(F3.8705419090448903
F-1.37477086442831
tp471
a(F3.8727795685363127
F-1.2159866601236935
tp472
aa(lp473
(F3.977835098506496
F-4.850726567217112
tp474
a(F3.9625171800110373
F-0.17317544440959765
tp475
a(F4.013524352000717
F1.492364531527075
tp476
a(F4.0088891343412
F2.323043773302702
tp477
a(F3.9213515862652706
F3.260829950501712
tp478
a(F3.9133677354963616
F4.585050568849512
tp479
a(F3.845312270993773
F6.254055577432037
tp480
a(F3.7917125307278585
F2.4506207198571133
tp481
a(F3.7913500870259575
F2.44842947802449
tp482
a(F3.7913261273521215
F2.423201555863642
tp483
a(F3.7878204027751305
F2.1744355172405196
tp484
a(F3.790644934940289
F1.7059518445679203
tp485
a(F3.7859405935042787
F-3.247402711659104
tp486
a(F3.806156137834787
F-3.1251847060098275
tp487
a(F3.7885757682723877
F-4.6014390168664585
tp488
a(F3.8631603624988706
F-7.802673569712596
tp489
a(F3.8876226327159387
F-5.7485340515919665
tp490
a(F3.8881371559022426
F-5.905651254462247
tp491
a(F3.977835098506496
F-4.850726567217112
tp492
aa(lp493
(F3.7655104126931356
F0.059322401571376915
tp494
a(F3.7293946247065417
F-0.36543022084340393
tp495
a(F3.756964148861332
F1.5909018183954267
tp496
a(F3.7655104126931356
F0.059322401571376915
tp497
aa(lp498
(F3.7186528255340896
F-1.1276677466761909
tp499
a(F3.7199046182673605
F-1.509921021282433
tp500
a(F3.715768008711944
F-1.3323742024282872
tp501
a(F3.7186528255340896
F-1.1276677466761909
tp502
aa(lp503
(F3.8239856928434524
F-4.847096678760311
tp504
a(F3.808962314182974
F-0.25948761539347664
tp505
a(F3.8594546179331797
F1.3892403397678361
tp506
a(F3.8528268602010165
F2.5770034982728234
tp507
a(F3.7691328834867974
F3.4736136524586847
tp508
a(F3.7636816332808056
F4.377771073168226
tp509
a(F3.6892302786229116
F6.203630094599983
tp510
a(F3.635555548738358
F2.3948739774804277
tp511
a(F3.6357776262721426
F2.3580396656149176
tp512
a(F3.630409604410092
F-3.294125660816867
tp513
a(F3.6516518579314585
F-3.165700434247036
tp514
a(F3.634633696495108
F-4.594745147675843
tp515
a(F3.709218290721589
F-7.795979700521976
tp516
a(F3.7337453711533666
F-5.736397955574947
tp517
a(F3.734287750239197
F-5.902021366005447
tp518
a(F3.8239856928434524
F-4.847096678760311
tp519
aa(lp520
(F3.6108952414364595
F0.053946230291376907
tp521
a(F3.5737822043667578
F-0.38253489610644387
tp522
a(F3.602112993447996
F1.627816463799359
tp523
a(F3.6108952414364595
F0.053946230291376907
tp524
aa(lp525
(F3.5645260825318683
F-1.0393488332286882
tp526
a(F3.5660586926944013
F-1.507353829384682
tp527
a(F3.5609941083789973
F-1.2899775404282643
tp528
a(F3.5645260825318683
F-1.0393488332286882
tp529
aa(lp530
(F3.6701362871804086
F-4.843466790303512
tp531
a(F3.655407448354911
F-0.34579978637735387
tp532
a(F3.7053848838656425
F1.2861161480086008
tp533
a(F3.6967645860608354
F2.8309632232429465
tp534
a(F3.6169141807083243
F3.6863973544156607
tp535
a(F3.6139955310652496
F4.170491577486938
tp536
a(F3.5331482862520485
F6.153204611767929
tp537
a(F3.4832906947015854
F2.615312437720336
tp538
a(F3.4846994470299606
F2.381653401075239
tp539
a(F3.480288108837586
F2.3549835797089607
tp540
a(F3.4748786153159053
F-3.340848609974632
tp541
a(F3.497147578028134
F-3.206216162484247
tp542
a(F3.480691624717828
F-4.588051278485223
tp543
a(F3.555276218944311
F-7.789285831331361
tp544
a(F3.5798681095907945
F-5.724261859557928
tp545
a(F3.5804383445761534
F-5.898391477548647
tp546
a(F3.6701362871804086
F-4.843466790303512
tp547
aa(lp548
(F3.456280070179787
F0.048570059011376898
tp549
a(F3.4181697840269756
F-0.3996395713694838
tp550
a(F3.4472618380346596
F1.6647311092032897
tp551
a(F3.456280070179787
F0.048570059011376898
tp552
aa(lp553
(F3.4103993395296452
F-0.95102991978118467
tp554
a(F3.4122127671214386
F-1.504786637486931
tp555
a(F3.406220208046051
F-1.2475808784282414
tp556
a(F3.4103993395296452
F-0.95102991978118467
tp557
aa(lp558
(F3.516286881517363
F-4.839836901846709
tp559
a(F3.5018525825268476
F-0.43211195736122932
tp560
a(F3.5513151497981053
F1.1829919562493618
tp561
a(F3.5407023119206507
F3.084922948213068
tp562
a(F3.464695477929851
F3.8991810563726332
tp563
a(F3.4643094288496936
F3.963212081805654
tp564
a(F3.377066293881187
F6.1027791289358735
tp565
a(F3.331025840664811
F2.835750897960242
tp566
a(F3.333873822065902
F2.3633778788299384
tp567
a(F3.324757119743399
F2.3082606305511977
tp568
a(F3.3193476262217203
F-3.3875715591323967
tp569
a(F3.3426432981248073
F-3.2467318907214544
tp570
a(F3.326749552940548
F-4.581357409294607
tp571
a(F3.401334147167029
F-7.782591962140744
tp572
a(F3.4259908480282224
F-5.712125763540909
tp573
a(F3.4265889389131097
F-5.8947615890918454
tp574
a(F3.516286881517363
F-4.839836901846709
tp575
aa(lp576
(F3.301664898923116
F0.04319388773137689
tp577
a(F3.2625573636871934
F-0.41674424663252374
tp578
a(F3.2924106826213233
F1.7016457546072186
tp579
a(F3.301664898923116
F0.04319388773137689
tp580
aa(lp581
(F3.2562725965274257
F-0.86271100633368292
tp582
a(F3.258366841548481
F-1.50221944558918
tp583
a(F3.251446307713106
F-1.2051842164282185
tp584
a(F3.2562725965274257
F-0.86271100633368292
tp585
aa(lp586
(F3.362437475854321
F-4.8362070133899095
tp587
a(F3.3482977166987844
F-0.51842412834510654
tp588
a(F3.39724541573057
F1.0798677644901282
tp589
a(F3.3846400377804695
F3.3388826731831873
tp590
a(F3.2905098855592882
F4.347295149325362
tp591
a(F3.2209843015103257
F6.052353646103818
tp592
a(F3.17876098662804
F3.0561893582001485
tp593
a(F3.1830481971018454
F2.345102356584638
tp594
a(F3.169226130649214
F2.261537681393433
tp595
a(F3.1638166371275336
F-3.4342945082901597
tp596
a(F3.1881390182214844
F-3.2872476189586655
tp597
a(F3.172807481163268
F-4.574663540103988
tp598
a(F3.247392075389749
F-7.775898092950125
tp599
a(F3.272113586465652
F-5.69998966752389
tp600
a(F3.272739533250066
F-5.891131700635045
tp601
a(F3.362437475854321
F-4.8362070133899095
tp602
aa(lp603
(F3.1470497276664435
F0.037817716451376882
tp604
a(F3.106944943347415
F-0.4338489218955619
tp605
a(F3.137559527207987
F1.7385604000111492
tp606
a(F3.1470497276664435
F0.037817716451376882
tp607
aa(lp608
(F3.1021458535252044
F-0.77439209288618116
tp609
a(F3.1045209159755203
F-1.499652253691429
tp610
a(F3.0966724073801615
F-1.1627875544281965
tp611
a(F3.1021458535252044
F-0.77439209288618116
tp612
aa(lp613
(F3.2085880701912775
F-4.832577124933108
tp614
a(F3.194742850870721
F-0.60473629932898376
tp615
a(F3.2431756816630344
F0.97674357273089107
tp616
a(F3.2285777636402884
F3.5928423981533086
tp617
a(F3.1367511386284317
F4.57657728138606
tp618
a(F3.130862723816442
F4.384302550564843
tp619
a(F3.064902309139466
F6.001928163271764
tp620
a(F3.0264961325912676
F3.276627818440055
tp621
a(F3.032222572137787
F2.3268268343393395
tp622
a(F3.0136951415550293
F2.21481473223567
tp623
a(F3.0082856480333504
F-3.4810174574479227
tp624
a(F3.0336347383181597
F-3.327763347195873
tp625
a(F3.018865409385988
F-4.567969670913372
tp626
a(F3.093450003612471
F-7.769204223759506
tp627
a(F3.11823632490308
F-5.687853571506871
tp628
a(F3.118890127587022
F-5.887501812178246
tp629
a(F3.2085880701912775
F-4.832577124933108
tp630
aa(lp631
(F2.992434556409771
F0.032441545171376873
tp632
a(F2.9513325230076326
F-0.45095359715860184
tp633
a(F2.9827083717946508
F1.7754750454150798
tp634
a(F2.992434556409771
F0.032441545171376873
tp635
aa(lp636
(F3.0547386645282337
F-4.828947236476309
tp637
a(F3.041187985042658
F-0.69104847031286099
tp638
a(F3.089105947595499
F0.87361938097165392
tp639
a(F3.072515489500107
F3.846802123123428
tp640
a(F2.990423363911747
F4.726251711623128
tp641
a(F2.9768515743842094
F4.283091326105435
tp642
a(F2.9088203167686046
F5.9515026804397095
tp643
a(F2.874231278554495
F3.497066278679963
tp644
a(F2.88139694717373
F2.308551312094039
tp645
a(F2.8581641524608425
F2.168091783077907
tp646
a(F2.8527546589391637
F-3.527740406605689
tp647
a(F2.879130458414835
F-3.368279075433083
tp648
a(F2.864923337608708
F-4.561275801722753
tp649
a(F2.9395079318351893
F-7.76251035456889
tp650
a(F2.9643590633405097
F-5.675717475489852
tp651
a(F2.9650407219239767
F-5.883871923721443
tp652
a(F3.0547386645282337
F-4.828947236476309
tp653
aa(lp654
(F2.9480191105229814
F-0.6860731794386794
tp655
a(F2.9506749904025593
F-1.497085061793678
tp656
a(F2.944261253552062
F-1.221801992527002
tp657
a(F2.94296405180938
F-1.0447798900126308
tp658
a(F2.9480191105229814
F-0.6860731794386794
tp659
aa(lp660
(F2.8378193851530984
F0.027065373891376865
tp661
a(F2.7957201026678504
F-0.46805827242164177
tp662
a(F2.8278572163813127
F1.8123896908190105
tp663
a(F2.8378193851530984
F0.027065373891376865
tp664
aa(lp665
(F2.9008892588651882
F-4.825317348019509
tp666
a(F2.8876331192145948
F-0.77736064129673821
tp667
a(F2.9350362135279617
F0.77049518921241855
tp668
a(F2.9164532153599225
F4.100761848093551
tp669
a(F2.844095589195062
F4.8759261418601945
tp670
a(F2.8228404249519734
F4.181880101646026
tp671
a(F2.7527383243977432
F5.901077197607654
tp672
a(F2.7219664245177224
F3.717504738919869
tp673
a(F2.73057132220967
F2.2902757898487387
tp674
a(F2.7026331633666576
F2.121368833920142
tp675
a(F2.697223669844977
F-3.5744633557634504
tp676
a(F2.7246261785115085
F-3.4087948036702915
tp677
a(F2.7109812658314265
F-4.554581932532137
tp678
a(F2.785565860057911
F-7.755816485378273
tp679
a(F2.8104818017779376
F-5.663581379472833
tp680
a(F2.811191316260933
F-5.880242035264644
tp681
a(F2.9008892588651882
F-4.825317348019509
tp682
aa(lp683
(F2.79389236752076
F-0.59775426599117587
tp684
a(F2.7968290648295984
F-1.4945178698959278
tp685
a(F2.7959192118335103
F-1.4554662013939765
tp686
a(F2.7910907729538046
F-0.796555274725252
tp687
a(F2.79389236752076
F-0.59775426599117587
tp688
aa(lp689
(F2.683204213896424
F0.021689202611376857
tp690
a(F2.6401076823280665
F-0.48516294768467993
tp691
a(F2.6730060609679747
F1.849304336222941
tp692
a(F2.683204213896424
F0.021689202611376857
tp693
aa(lp694
(F2.639765624518539
F-0.50943535254367411
tp695
a(F2.6404387781296226
F-0.71499268269190352
tp696
a(F2.6392174940982294
F-0.54833065943786963
tp697
a(F2.639765624518539
F-0.50943535254367411
tp698
aa(lp699
(F2.7470398532021445
F-4.821687459562709
tp700
a(F2.7340782533865315
F-0.86367281228061543
tp701
a(F2.7809664794604245
F0.6673709974531814
tp702
a(F2.7603909412197414
F4.354721573063674
tp703
a(F2.697767814478375
F5.025600572097259
tp704
a(F2.668829275519741
F4.080668877186616
tp705
a(F2.59665633202688
F5.850651714775601
tp706
a(F2.56970157048095
F3.9379431991597755
tp707
a(F2.5797456972456114
F2.2720002676034383
tp708
a(F2.547102174272471
F2.074645884762379
tp709
a(F2.5416926807507902
F-3.621186304921217
tp710
a(F2.570121898608182
F-3.449310531907501
tp711
a(F2.5570391940541484
F-4.54788806334152
tp712
a(F2.6316237882806295
F-7.749122616187654
tp713
a(F2.6566045402153655
F-5.6514452834558115
tp714
a(F2.6573419105978893
F-5.876612146807841
tp715
a(F2.7470398532021445
F-4.821687459562709
tp716
aa(lp717
(F2.5285890426397515
F0.016313031331376848
tp718
a(F2.488482045832235
F-0.4553796277765354
tp719
a(F2.4873442152426577
F-0.30010604415049258
tp720
a(F2.5181549055546384
F1.8862189816268717
tp721
a(F2.5285890426397515
F0.016313031331376848
tp722
aa(lp723
(F2.5931904475391008
F-4.818057571105908
tp724
a(F2.58052338755847
F-0.94998498326449266
tp725
a(F2.626896745392889
F0.56424680569394603
tp726
a(F2.6043286670795602
F4.608681298033794
tp727
a(F2.5514400397616903
F5.175275002334324
tp728
a(F2.5148181260875084
F3.9794576527272074
tp729
a(F2.4405743396560204
F5.800226231943544
tp730
a(F2.4174367164441772
F4.158381659399682
tp731
a(F2.4289200722815547
F2.253724745358138
tp732
a(F2.391571185178286
F2.0279229356046145
tp733
a(F2.3861616916566053
F-3.667909254078978
tp734
a(F2.4156176187048573
F-3.48982626014471
tp735
a(F2.4030971222768684
F-4.5411941941509015
tp736
a(F2.4776817165033496
F-7.742428746997039
tp737
a(F2.502727278652795
F-5.639309187438793
tp738
a(F2.5034925049348473
F-5.872982258351042
tp739
a(F2.5931904475391008
F-4.818057571105908
tp740
aa(lp741
(F2.373973871383079
F0.01093686005137684
tp742
a(F2.338102125828012
F-0.41094561419415143
tp743
a(F2.3359909521670286
F-0.12284516848636606
tp744
a(F2.359236130911812
F1.634495572293332
tp745
a(F2.363303750141302
F1.9231336270308006
tp746
a(F2.373973871383079
F0.01093686005137684
tp747
aa(lp748
(F2.439341041876057
F-4.814427682649108
tp749
a(F2.426968521730405
F-1.036297154248369
tp750
a(F2.472827011325352
F0.46112261393470888
tp751
a(F2.4482663929393773
F4.862641023003913
tp752
a(F2.4051122650450054
F5.32494943257139
tp753
a(F2.360806976655274
F3.878246428267797
tp754
a(F2.2844923472851573
F5.74980074911149
tp755
a(F2.2651718624074046
F4.37882011963959
tp756
a(F2.278094447317496
F2.2354492231128393
tp757
a(F2.236040196084099
F1.9811999864468497
tp758
a(F2.2306307025624204
F-3.714632203236743
tp759
a(F2.2611133388015325
F-3.5303419883819185
tp760
a(F2.2491550504995885
F-4.534500324960283
tp761
a(F2.3237396447260696
F-7.735734877806422
tp762
a(F2.3488500170902213
F-5.627173091421775
tp763
a(F2.349643099271802
F-5.869352369894243
tp764
a(F2.439341041876057
F-4.814427682649108
tp765
aa(lp766
(F2.2193587001264063
F0.0055606887713768316
tp767
a(F2.1877222058237855
F-0.36651160061176924
tp768
a(F2.1856666899602306
F-0.086006473347996604
tp769
a(F2.2097219107646193
F1.7325736293105614
tp770
a(F2.2193587001264063
F0.0055606887713768316
tp771
aa(lp772
(F2.2854916362130133
F-4.8107977941923075
tp773
a(F2.273413655902342
F-1.122609325232247
tp774
a(F2.3187572772578147
F0.35799842217547173
tp775
a(F2.2922041187991944
F5.1166007479740365
tp776
a(F2.2587844903283205
F5.474623862808459
tp777
a(F2.2067958272230417
F3.7770352038083885
tp778
a(F2.128410354914296
F5.699375266279436
tp779
a(F2.112907008370632
F4.5992585798795
tp780
a(F2.1272688223534377
F2.217173700867539
tp781
a(F2.0805092069899125
F1.934477037289085
tp782
a(F2.0750997134682336
F-3.761355152394507
tp783
a(F2.106609058898206
F-3.570857716619127
tp784
a(F2.0952129787223086
F-4.527806455769667
tp785
a(F2.1697975729487897
F-7.729041008615803
tp786
a(F2.1949727555276493
F-5.615036995404755
tp787
a(F2.195793693608758
F-5.86572248143744
tp788
a(F2.2854916362130133
F-4.8107977941923075
tp789
aa(lp790
(F2.064743528869734
F0.00018451749137682327
tp791
a(F2.033082604254128
F-0.37217509331228271
tp792
a(F2.0332382975996186
F-0.20824049104188624
tp793
a(F2.0562141455098626
F1.5287387780761694
tp794
a(F2.064743528869734
F0.00018451749137682327
tp795
aa(lp796
(F2.1316422305499696
F-4.807167905735506
tp797
a(F2.1198587900742805
F-1.2089214962161243
tp798
a(F2.1646875431902792
F0.25487423041623636
tp799
a(F2.1361418446590115
F5.370560472944156
tp800
a(F2.1124567156116356
F5.624298293045523
tp801
a(F2.052784677790809
F3.6758239793489764
tp802
a(F1.9723283625434362
F5.648949783447382
tp803
a(F1.9606421543338595
F4.819697040119404
tp804
a(F1.9764431973893792
F2.1988981786222404
tp805
a(F1.9249782178957275
F1.887754088131322
tp806
a(F1.9195687243740487
F-3.8080781015522707
tp807
a(F1.9521047789948813
F-3.6113734448563353
tp808
a(F1.9412709069450287
F-4.52111258657905
tp809
a(F2.0158555011715116
F-7.722347139425186
tp810
a(F2.041095493965079
F-5.602900899387736
tp811
a(F2.0419442879457144
F-5.862092592980641
tp812
a(F2.1316422305499696
F-4.807167905735506
tp813
aa(lp814
(F1.9101283576130612
F-0.0051916537886231851
tp815
a(F1.8805040238496655
F-0.35359921056030252
tp816
a(F1.9027063802551059
F1.3249039268417793
tp817
a(F1.9101283576130612
F-0.0051916537886231851
tp818
aa(lp819
(F1.9777928248869259
F-4.803538017278706
tp820
a(F1.9663039242462173
F-1.2952336671999998
tp821
a(F2.010617809122744
F0.15175003865699921
tp822
a(F1.9800795705188303
F5.624520197914277
tp823
a(F1.9661289408949507
F5.773972723282588
tp824
a(F1.8987735283585767
F3.574612754889568
tp825
a(F1.8162463701725748
F5.598524300615328
tp826
a(F1.8083773002970887
F5.040135500359311
tp827
a(F1.8256175724253225
F2.18062265637694
tp828
a(F1.7694472288015426
F1.841031138973559
tp829
a(F1.7640377352798637
F-3.8548010507100354
tp830
a(F1.7976004990915584
F-3.6518891730935454
tp831
a(F1.7873288351677488
F-4.514418717388432
tp832
a(F1.8619134293942317
F-7.715653270234567
tp833
a(F1.8872182324025069
F-5.590764803370718
tp834
a(F1.8880948822826706
F-5.858462704523841
tp835
a(F1.9777928248869259
F-4.803538017278706
tp836
aa(lp837
(F1.7555131863563869
F-0.010567825068623193
tp838
a(F1.730308990708501
F-0.3069907689974638
tp839
a(F1.7491986150003474
F1.1210690756073856
tp840
a(F1.7555131863563869
F-0.010567825068623193
tp841
aa(lp842
(F1.8239434192238822
F-4.7999081288219045
tp843
a(F1.812749058418154
F-1.3815458381838779
tp844
a(F1.8565480750552066
F0.048625846897762059
tp845
a(F1.8240172963786474
F5.878479922884399
tp846
a(F1.819801166178264
F5.923647153519656
tp847
a(F1.7447623789263425
F3.4734015304301593
tp848
a(F1.6601643778017117
F5.548098817783272
tp849
a(F1.6561124462603143
F5.260573960599217
tp850
a(F1.6747919474612623
F2.1623471341316396
tp851
a(F1.6139162397073559
F1.7943081898157942
tp852
a(F1.608506746185677
F-3.9015239998678
tp853
a(F1.6430962191882301
F-3.692404901330754
tp854
a(F1.6333867633904688
F-4.507724848197815
tp855
a(F1.7079713576169517
F-7.70895940104395
tp856
a(F1.7333409708399348
F-5.5786287073536975
tp857
a(F1.734245476619627
F-5.85483281606704
tp858
a(F1.8239434192238822
F-4.7999081288219045
tp859
aa(lp860
(F1.6008980150997143
F-0.015943996348623202
tp861
a(F1.5801139575673329
F-0.26038232743462508
tp862
a(F1.5956908497455888
F0.9172342243729954
tp863
a(F1.6008980150997143
F-0.015943996348623202
tp864
aa(lp865
(F1.6700940135608366
F-4.796278240365105
tp866
a(F1.659194192590089
F-1.467858009167755
tp867
a(F1.7024783409876694
F-0.05449834486147509
tp868
a(F1.669084568950046
F5.930013122316705
tp869
a(F1.5907512294941082
F3.372190305970749
tp870
a(F1.5040823854308503
F5.497673334951218
tp871
a(F1.5038475922235417
F5.481012420839125
tp872
a(F1.5239663224972038
F2.144071611886341
tp873
a(F1.4583852506131692
F1.7475852406580312
tp874
a(F1.4529757570914903
F-3.948246949025563
tp875
a(F1.4885919392849054
F-3.7329206295679622
tp876
a(F1.479444691613189
F-4.501030979007197
tp877
a(F1.55402928583967
F-7.7022655318533335
tp878
a(F1.5794637092773627
F-5.566492611336679
tp879
a(F1.5803960709565814
F-5.85120292761024
tp880
a(F1.6700940135608366
F-4.796278240365105
tp881
aa(lp882
(F1.4462828438430435
F-0.021320167628621434
tp883
a(F1.4299189244261683
F-0.21377388587178636
tp884
a(F1.4421830844908339
F0.71339937313860524
tp885
a(F1.4462828438430435
F-0.021320167628621434
tp886
aa(lp887
(F1.5162446078977947
F-4.792648351908306
tp888
a(F1.5056393267620276
F-1.5541701801516323
tp889
a(F1.548408606920134
F-0.15762253662071046
tp890
a(F1.5150148348825123
F5.826888930557471
tp891
a(F1.4367400800618757
F3.2709790815113386
tp892
a(F1.3540028702887206
F5.300041971858491
tp893
a(F1.373140697533147
F2.1257960896410406
tp894
a(F1.302854261518986
F1.7008622915002647
tp895
a(F1.2975386344399453
F-3.8961348587529683
tp896
a(F1.2982281812606349
F-3.9902335821545343
tp897
a(F1.3340876593815807
F-3.7734363578051724
tp898
a(F1.325502619835909
F-4.494337109816581
tp899
a(F1.400087214062392
F-7.695571662662716
tp900
a(F1.4255864477147924
F-5.554356515319659
tp901
a(F1.4265466652935395
F-5.847573039153438
tp902
a(F1.5162446078977947
F-4.792648351908306
tp903
aa(lp904
(F1.2916676725863692
F-0.026696338908621442
tp905
a(F1.279723891285002
F-0.16716544430894764
tp906
a(F1.2886753192360754
F0.50956452190421331
tp907
a(F1.2916676725863692
F-0.026696338908621442
tp908
aa(lp909
(F1.362395202234751
F-4.789018463451505
tp910
a(F1.3520844609339662
F-1.6404823511355104
tp911
a(F1.3943388728525985
F-0.26074672837994761
tp912
a(F1.360945100814975
F5.723764738798234
tp913
a(F1.2827289306296432
F3.16976785705193
tp914
a(F1.2043167680731646
F5.092762476177207
tp915
a(F1.2223150725690903
F2.1075205673957402
tp916
a(F1.1473232724247993
F1.6541393423425035
tp917
a(F1.1426752906724058
F-3.2398722645191302
tp918
a(F1.1482693880374306
F-4.0032684616118654
tp919
a(F1.179583379478256
F-3.813952086042381
tp920
a(F1.1715605480586309
F-4.487643240625963
tp921
a(F1.246145142285112
F-7.688877793472097
tp922
a(F1.2717091861522203
F-5.542220419302641
tp923
a(F1.2726972596304957
F-5.843943150696639
tp924
a(F1.362395202234751
F-4.789018463451505
tp925
aa(lp926
(F1.1370525013296984
F-0.032072510188623227
tp927
a(F1.1295288581438374
F-0.12055700274610892
tp928
a(F1.1351675539813186
F0.30572967066982315
tp929
a(F1.1370525013296984
F-0.032072510188623227
tp930
aa(lp931
(F1.2085457965717072
F-4.785388574994703
tp932
a(F1.198529595105903
F-1.7267945221193859
tp933
a(F1.240269138785063
F-0.36387092013918121
tp934
a(F1.2068753667474397
F5.620640547038999
tp935
a(F1.1287177811974107
F3.0685566325925215
tp936
a(F1.0546306658576103
F4.885482980495919
tp937
a(F1.0714894476050318
F2.0892450451504416
tp938
a(F0.99179228333061431
F1.6074163931847405
tp939
a(F0.98781194690486984
F-2.583609670285294
tp940
a(F0.99831059481422635
F-4.016303341069193
tp941
a(F1.0250790995749313
F-3.854467814279589
tp942
a(F1.017618476281351
F-4.480949371435345
tp943
a(F1.092203070507832
F-7.682183924281481
tp944
a(F1.11783192458965
F-5.530084323285623
tp945
a(F1.118847853967452
F-5.840313262239838
tp946
a(F1.2085457965717072
F-4.785388574994703
tp947
aa(lp948
(F0.98243733007302403
F-0.037448681468623235
tp949
a(F0.97933382500267108
F-0.073948561183268424
tp950
a(F0.9816597887265619
F0.10189481943542944
tp951
a(F0.98243733007302403
F-0.037448681468623235
tp952
aa(lp953
(F1.0546963909086635
F-4.781758686537904
tp954
a(F1.044974729277838
F-1.813106693103264
tp955
a(F1.0861994047175259
F-0.46699511189842013
tp956
a(F1.0528056326799025
F5.51751635527976
tp957
a(F0.97470663176517647
F2.967345408133111
tp958
a(F0.90494456364205433
F4.6782034848146345
tp959
a(F0.91646062097868608
F2.7681226217518855
tp960
a(F0.91539017206227236
F2.03908638161138
tp961
a(F0.83626129423642759
F1.5606934440269757
tp962
a(F0.83294860313733032
F-1.927347076051456
tp963
a(F0.8483518015910203
F-4.029338220526526
tp964
a(F0.87057481967160477
F-3.8949835425167976
tp965
a(F0.86367640450406924
F-4.474255502244728
tp966
a(F0.93826099873055213
F-7.675490055090863
tp967
a(F0.96395466302707788
F-5.517948227268601
tp968
a(F0.96499844830440828
F-5.836683373783038
tp969
a(F1.0546963909086635
F-4.781758686537904
tp970
aa(lp971
(F0.90084698524561801
F-4.778128798081102
tp972
a(F0.89141986344977475
F-1.8994188640871403
tp973
a(F0.93212967064998864
F-0.57011930365765728
tp974
a(F0.89873589861236525
F5.4143921635205245
tp975
a(F0.82343381813493188
F2.955549212342099
tp976
a(F0.76275340974637551
F4.424985059101854
tp977
a(F0.76255801241543608
F4.291908428076116
tp978
a(F0.75525846142649833
F4.470923989133347
tp979
a(F0.76133982563666613
F3.462254349897716
tp980
a(F0.75917550570327386
F1.9882300947384906
tp981
a(F0.68073030514224264
F1.5139704948692128
tp982
a(F0.67808525936979258
F-1.2710844818176152
tp983
a(F0.69839300836781604
F-4.0423730999838545
tp984
a(F0.71607053976827828
F-3.9354992707540113
tp985
a(F0.70973433272678932
F-4.46756163305411
tp986
a(F0.78431892695327221
F-7.668796185900247
tp987
a(F0.8100774014645058
F-5.505812131251582
tp988
a(F0.81114904264136278
F-5.8330534853262375
tp989
a(F0.90084698524561801
F-4.778128798081102
tp990
aa(lp991
(F0.74699757958257429
F-4.774498909624302
tp992
a(F0.73786499762171154
F-1.9857310350710176
tp993
a(F0.7780599365824532
F-0.67324349541689088
tp994
a(F0.74466616454482981
F5.311267971761289
tp995
a(F0.67222561057664798
F2.9458626021513385
tp996
a(F0.60676901750143486
F4.530958464650897
tp997
a(F0.60634856803275383
F4.2446086023479985
tp998
a(F0.6055723592109441
F4.263644493452061
tp999
a(F0.60621903029464796
F4.156386078043543
tp1000
a(F0.60296083934427536
F1.9373738078655993
tp1001
a(F0.52519931604805592
F1.467247545711448
tp1002
a(F0.52322191560225306
F-0.61482188758377809
tp1003
a(F0.54843421514460999
F-4.055407979441185
tp1004
a(F0.58955607993042847
F-3.806795712537392
tp1005
a(F0.57444271275585557
F-5.261361101232404
tp1006
a(F0.63037685517599229
F-7.662102316709629
tp1007
a(F0.65620013990193371
F-5.493676035234563
tp1008
a(F0.65729963697831906
F-5.829423596869436
tp1009
a(F0.74699757958257429
F-4.774498909624302
tp1010
aa(lp1011
(F0.59314817391953056
F-4.770869021167503
tp1012
a(F0.5843101317936501
F-2.072043206054893
tp1013
a(F0.62399020251491777
F-0.77636768717612981
tp1014
a(F0.59059643047729438
F5.20814378000205
tp1015
a(F0.52101740301836585
F2.936175991960578
tp1016
a(F0.45078462525649599
F4.636931870199938
tp1017
a(F0.44674617298527863
F1.8865175209927099
tp1018
a(F0.36966832695387097
F1.4205245965536832
tp1019
a(F0.3683585718347171
F0.04144070665005728
tp1020
a(F0.39847542192140573
F-4.068442858898516
tp1021
a(F0.47456303353077445
F-3.608436638265637
tp1022
a(F0.44605982330087635
F-6.3516891900105845
tp1023
a(F0.47643478339871237
F-7.65540844751901
tp1024
a(F0.5023228783393634
F-5.481539939217544
tp1025
a(F0.50345023131527711
F-5.825793708412637
tp1026
a(F0.59314817391953056
F-4.770869021167503
tp1027
aa(lp1028
(F0.47520121845723118
F-3.547015401364092
tp1029
a(F0.47649146663056818
F-2.188471011039181
tp1030
a(F0.48673860357339649
F-2.4366155234167266
tp1031
a(F0.47520121845723118
F-3.547015401364092
tp1032
aa(lp1033
(F0.37188177070975925
F-1.2275151453296767
tp1034
a(F0.35653348029418552
F-2.538134139797444
tp1035
a(F0.353527170759385
F-1.7795254621211392
tp1036
a(F0.36762872770753141
F-0.71344458550213652
tp1037
a(F0.370409232046093
F-1.211739898769438
tp1038
a(F0.37188177070975925
F-1.2275151453296767
tp1039
aa(lp1040
(F0.43929876825648684
F-4.767239132710701
tp1041
a(F0.42973667054994991
F-1.8473123243219796
tp1042
a(F0.4376761437474137
F-1.9323675764106705
tp1043
a(F0.46992046844738056
F-0.87949187893536518
tp1044
a(F0.43652669640975716
F5.105019588242815
tp1045
a(F0.36980919546008195
F2.9264893817698194
tp1046
a(F0.29480023301155533
F4.74290527574898
tp1047
a(F0.29053150662628013
F1.8356612341198204
tp1048
a(F0.21413733785968603
F1.3738016473959185
tp1049
a(F0.21349522806717758
F0.69770330088389798
tp1050
a(F0.23234289220237514
F-1.8743354367417027
tp1051
a(F0.23072703156045904
F-1.9769397972513652
tp1052
a(F0.23361268695475523
F-2.0476174555918254
tp1053
a(F0.24851662869819968
F-4.081477738355845
tp1054
a(F0.3196152444974345
F-3.6516337091603326
tp1055
a(F0.32109204410964587
F-2.0966632234312463
tp1056
a(F0.33683250137486098
F-2.4778338971978187
tp1057
a(F0.32128301447550101
F-3.738832612160717
tp1058
a(F0.34570905227162996
F-4.744104314530929
tp1059
a(F0.31767693384589712
F-7.44201727878877
tp1060
a(F0.32249271162143245
F-7.648714578328392
tp1061
a(F0.34844561677679131
F-5.469403843200525
tp1062
a(F0.34960082565223161
F-5.8221638199558345
tp1063
a(F0.36694681359848147
F-5.618160134053152
tp1064
a(F0.36908873442659029
F-5.706312474403526
tp1065
a(F0.36865956633594266
F-5.598016693819901
tp1066
a(F0.43929876825648684
F-4.767239132710701
tp1067
aa(lp1068
(F0.28544936259344134
F-4.7636092442539
tp1069
a(F0.27835969823970252
F-2.59867623015075
tp1070
a(F0.24782482028193975
F-5.206106110718485
tp1071
a(F0.28544936259344134
F-4.7636092442539
tp1072
aa(lp1073
(F0.098557835474993638
F-4.0945126178131765
tp1074
a(F0.16408425540324778
F-3.6983566583180973
tp1075
a(F0.16569262158872533
F-2.0048554358233135
tp1076
a(F0.1831262954088011
F-2.4270290159333596
tp1077
a(F0.16682851542357824
F-3.748711187899998
tp1078
a(F0.22684304990801785
F-6.218653867579742
tp1079
a(F0.20774448049019867
F-1.3993429071322296
tp1080
a(F0.2141209624527729
F-0.91727943673652845
tp1081
a(F0.21434695790591007
F-0.9577801737993159
tp1082
a(F0.2913483690307288
F-1.782693146173603
tp1083
a(F0.31585073437984335
F-0.98261607069460233
tp1084
a(F0.28245696234221995
F5.001895396483578
tp1085
a(F0.21860098790179627
F2.916802771579059
tp1086
a(F0.13881584076661468
F4.848878681298023
tp1087
a(F0.13431684026728163
F1.7848049472469274
tp1088
a(F0.05881946940338878
F1.328367171053909
tp1089
a(F0.080397333849370867
F-1.616247229552914
tp1090
a(F0.074270516343478477
F-2.005289561449695
tp1091
a(F0.085211982164926425
F-2.27327623255405
tp1092
a(F0.098557835474993638
F-4.0945126178131765
tp1093
aa(lp1094
(F-0.051400957748210629
F-4.107547497270508
tp1095
a(F0.0085532663090628347
F-3.7450796074758603
tp1096
a(F0.010293199067804792
F-1.9130476482153789
tp1097
a(F0.029420089442741215
F-2.3762241346689006
tp1098
a(F0.012374016371657248
F-3.7585897636392804
tp1099
a(F0.084597365389447177
F-6.730995260755953
tp1100
a(F0.061961790221014112
F-1.0191603521433228
tp1101
a(F0.065158836131020692
F-0.77746296235422818
tp1102
a(F0.14502059431404391
F-1.6330187159365375
tp1103
a(F0.16178100031230791
F-1.0857402624538386
tp1104
a(F0.12838722827468452
F4.898771204724342
tp1105
a(F0.067392780343514147
F2.9071161613882985
tp1106
a(F-0.016446511580159751
F4.937367179653304
tp1107
a(F-0.017287587787857106
F4.873781629199378
tp1108
a(F-0.021897826091715089
F1.733948660374038
tp1109
a(F-0.091139323819817264
F1.3153322915965795
tp1110
a(F-0.07154822450363163
F-1.3581590223641262
tp1111
a(F-0.082185998873498534
F-2.033639325648023
tp1112
a(F-0.063188722624902383
F-2.4989350095162752
tp1113
a(F-0.051400957748210629
F-4.107547497270508
tp1114
aa(lp1115
(F-0.20135975097141312
F-4.120582376727836
tp1116
a(F-0.14697772278512211
F-3.791802556633625
tp1117
a(F-0.14510622345311575
F-1.821239860607447
tp1118
a(F-0.12428611652331867
F-2.3254192534044416
tp1119
a(F-0.14208048268026374
F-3.768468339378563
tp1120
a(F-0.065467533177047343
F-6.921531100253649
tp1121
a(F-0.060515181307559729
F-6.519915961189144
tp1122
a(F-0.083820900048168667
F-0.63897779715441771
tp1123
a(F-0.083362110115832166
F-0.60429317509123592
tp1124
a(F-0.001307180402640995
F-1.4833442856994727
tp1125
a(F0.0077112662447724745
F-1.188864454213073
tp1126
a(F-0.025682505792850918
F4.795647012965105
tp1127
a(F-0.083815427214767979
F2.8974295511975363
tp1128
a(F-0.16745133371537335
F4.922755391150396
tp1129
a(F-0.17409291756052703
F4.420650158812091
tp1130
a(F-0.17811249245071181
F1.6830923735011503
tp1131
a(F-0.24109811704301976
F1.30229741213925
tp1132
a(F-0.22349378285663235
F-1.1000708151753393
tp1133
a(F-0.23864251409047554
F-2.0619890898463513
tp1134
a(F-0.21158942741473119
F-2.724593786478499
tp1135
a(F-0.20135975097141312
F-4.120582376727836
tp1136
aa(lp1137
(F-0.35131854419462094
F-4.1336172561851665
tp1138
a(F-0.30250871187931061
F-3.838525505791388
tp1139
a(F-0.30050564597403806
F-1.7294320729995123
tp1140
a(F-0.27799232248938033
F-2.2746143721399825
tp1141
a(F-0.29653498173218651
F-3.7783469151178455
tp1142
a(F-0.21992203222897189
F-6.931409675992929
tp1143
a(F-0.20723714546430472
F-5.902718117665402
tp1144
a(F-0.22878932337286173
F-0.4642664229894109
tp1145
a(F-0.14763495511932767
F-1.3336698554624045
tp1146
a(F-0.14635846782276474
F-1.291988645972312
tp1147
a(F-0.17975223986038813
F4.69252282120587
tp1148
a(F-0.23502363477305366
F2.8877429410067776
tp1149
a(F-0.31845615585058873
F4.90814360264749
tp1150
a(F-0.3308982473332005
F3.9675186884247964
tp1151
a(F-0.33432715880971209
F1.632236086628259
tp1152
a(F-0.39105691026622758
F1.289262532681919
tp1153
a(F-0.37543934120963662
F-0.841982607986548
tp1154
a(F-0.39509902930745611
F-2.0903388540446812
tp1155
a(F-0.35999013220456177
F-2.950252563440726
tp1156
a(F-0.35131854419462094
F-4.1336172561851665
tp1157
aa(lp1158
(F-0.50127733741782521
F-4.146652135642497
tp1159
a(F-0.47519512872859337
F-3.9889657792026494
tp1160
a(F-0.47380222257749693
F-4.023081892042045
tp1161
a(F-0.47392420381215672
F-3.98128209252683
tp1162
a(F-0.45803970097349378
F-3.885248454949153
tp1163
a(F-0.4559050684949586
F-1.6376242853915795
tp1164
a(F-0.43169852845543844
F-2.2238094908755235
tp1165
a(F-0.4509894807841075
F-3.788225490857127
tp1166
a(F-0.37437653128089288
F-6.941288251732212
tp1167
a(F-0.35395910962104438
F-5.285520274141669
tp1168
a(F-0.37359385854614402
F-0.33091039576640391
tp1169
a(F-0.3020922137473665
F-1.096904596119428
tp1170
a(F-0.33382197392792357
F4.589398629446633
tp1171
a(F-0.38623184233133578
F2.878056330816019
tp1172
a(F-0.46946097798580055
F4.893531814144584
tp1173
a(F-0.48770357710586865
F3.514387218037511
tp1174
a(F-0.49041311439878399
F1.6690391119673649
tp1175
a(F-0.49064629377912716
F1.7489436265970983
tp1176
a(F-0.49357384839856877
F1.5630489635346194
tp1177
a(F-0.54101570348943184
F1.2762276532245895
tp1178
a(F-0.52738489956263912
F-0.583894400797762
tp1179
a(F-0.55155554452443489
F-2.1186886182430102
tp1180
a(F-0.50839083699439058
F-3.1759113404029495
tp1181
a(F-0.50127733741782521
F-4.146652135642497
tp1182
aa(lp1183
(F-0.61103517138618813
F-1.8241311619994276
tp1184
a(F-0.60837586679308586
F-1.616736017426712
tp1185
a(F-0.58540473442150009
F-2.1730046096110645
tp1186
a(F-0.60544397983603027
F-3.7981040665964105
tp1187
a(F-0.52883103033281564
F-6.9511668274714955
tp1188
a(F-0.50068107377778759
F-4.668322430617929
tp1189
a(F-0.51654338683997558
F-0.66564466317608151
tp1190
a(F-0.52953552563223028
F-0.13094355486981257
tp1191
a(F-0.52892494885639429
F-0.084783813302250266
tp1192
a(F-0.4581544878875512
F-0.84294487114930483
tp1193
a(F-0.48789170799546078
F4.4862744376873955
tp1194
a(F-0.53744004988962146
F2.8683697206252585
tp1195
a(F-0.62046580012101415
F4.878920025641678
tp1196
a(F-0.64450890687854212
F3.0612557476502182
tp1197
a(F-0.64641310545293607
F1.7643888464169386
tp1198
a(F-0.65044755463011228
F1.5082082903128509
tp1199
a(F-0.69097449671263789
F1.2631927737672584
tp1200
a(F-0.67933045791564339
F-0.32580619360897067
tp1201
a(F-0.70801205974141368
F-2.1470383824413393
tp1202
a(F-0.65679154178421939
F-3.4015701173651767
tp1203
a(F-0.65123613064103125
F-4.159687015099829
tp1204
a(F-0.63086677639681277
F-4.036539114089077
tp1205
a(F-0.62464748142381055
F-4.188866798846286
tp1206
a(F-0.62519212492252585
F-4.0022316240406735
tp1207
a(F-0.6135706900676805
F-3.931971404106916
tp1208
a(F-0.61130449101587914
F-1.5458164977836457
tp1209
a(F-0.60899675129848063
F-1.6017006876859972
tp1210
a(F-0.61103517138618813
F-1.8241311619994276
tp1211
aa(lp1212
(F-0.76449947595627243
F-1.507391337102507
tp1213
a(F-0.76701534026772222
F-1.7819200740780286
tp1214
a(F-0.76670391353679967
F-1.454008710175712
tp1215
a(F-0.76449947595627243
F-1.507391337102507
tp1216
aa(lp1217
(F-0.76752277240783684
F-2.3162119271242805
tp1218
a(F-0.75889269325294428
F-1.6431651017829791
tp1219
a(F-0.7391109403875582
F-2.1221997283466054
tp1220
a(F-0.75989847888795126
F-3.8079826423356913
tp1221
a(F-0.68328552938473663
F-6.961045403210777
tp1222
a(F-0.64740303793452902
F-4.051124587094195
tp1223
a(F-0.65878907135854625
F-1.1779860563522924
tp1224
a(F-0.68171579775412283
F-0.23441962671588534
tp1225
a(F-0.68043111771753395
F-0.13729752703447673
tp1226
a(F-0.68005864673182082
F0.11637627544377693
tp1227
a(F-0.61421676202773234
F-0.58898514617918529
tp1228
a(F-0.64196144206299621
F4.38315024592816
tp1229
a(F-0.68864825744790359
F2.858683110434498
tp1230
a(F-0.77147062225622776
F4.86430823713877
tp1231
a(F-0.80131423665121204
F2.608124277262929
tp1232
a(F-0.8025664601765925
F1.7552892500499517
tp1233
a(F-0.80732126086165223
F1.453367617091084
tp1234
a(F-0.84093328993584215
F1.2501578943099272
tp1235
a(F-0.83127601626864589
F-0.067717986420184673
tp1236
a(F-0.86446857495839247
F-2.1753881466396674
tp1237
a(F-0.8051922465740482
F-3.6272288943274003
tp1238
a(F-0.80119492386423552
F-4.172721894557158
tp1239
a(F-0.78653842406503038
F-4.084112448975502
tp1240
a(F-0.77549274027012061
F-4.35465170565053
tp1241
a(F-0.77646004603289498
F-4.02318115555452
tp1242
a(F-0.76910167916186722
F-3.978694353264679
tp1243
a(F-0.76752277240783684
F-2.3162119271242805
tp1244
aa(lp1245
(F-0.92000220061406601
F-1.413081986519014
tp1246
a(F-0.92240016902238509
F-1.6747460339189129
tp1247
a(F-0.92210333605772199
F-1.3622009225677774
tp1248
a(F-0.92000220061406601
F-1.413081986519014
tp1249
aa(lp1250
(F-0.92343404287990971
F-2.7633455440506935
tp1251
a(F-0.90940951971280448
F-1.6695941861392454
tp1252
a(F-0.89281714635361986
F-2.0713948470821464
tp1253
a(F-0.9143529779398758
F-3.8178612180749747
tp1254
a(F-0.8377400284366594
F-6.970923978950058
tp1255
a(F-0.79412500209127224
F-3.4339267435704555
tp1256
a(F-0.8010347558771187
F-1.6903274495285086
tp1257
a(F-0.83669642757562102
F-0.22264490040041984
tp1258
a(F-0.8358303207619997
F0.36722281330453299
tp1259
a(F-0.77027903616791527
F-0.3350254212090622
tp1260
a(F-0.79603117613053342
F4.280026054168921
tp1261
a(F-0.83985646500618927
F2.8489965002437376
tp1262
a(F-0.92247544439144313
F4.849696448635864
tp1263
a(F-0.95811956642388374
F2.1549928068756365
tp1264
a(F-0.95871981490025249
F1.7461896536829666
tp1265
a(F-0.96419496709319574
F1.3985269438693173
tp1266
a(F-0.9908920831590482
F1.2371230148525978
tp1267
a(F-0.98322157462165016
F0.19037022076860488
tp1268
a(F-1.0209250901753713
F-2.2037379108379955
tp1269
a(F-0.95359295136387878
F-3.8528876712896265
tp1270
a(F-0.95115371708744156
F-4.1857567740144885
tp1271
a(F-0.94221007173325155
F-4.131685783861929
tp1272
a(F-0.92633799911643244
F-4.520436612454773
tp1273
a(F-0.92772796714326589
F-4.044130687068364
tp1274
a(F-0.92463266825605217
F-4.0254173024224436
tp1275
a(F-0.92343404287990971
F-2.7633455440506935
tp1276
aa(lp1277
(F-1.0755049252718578
F-1.3187726359355239
tp1278
a(F-1.0777849977770462
F-1.567571993759799
tp1279
a(F-1.0775027585786425
F-1.2703931349598454
tp1280
a(F-1.0755049252718578
F-1.3187726359355239
tp1281
aa(lp1282
(F-1.0793453133519826
F-3.2104791609771004
tp1283
a(F-1.0599263461726611
F-1.6960232704955116
tp1284
a(F-1.0465233523196797
F-2.0205899658176882
tp1285
a(F-1.0688074769917968
F-3.8277397938142563
tp1286
a(F-0.99219452748858039
F-6.980802554689341
tp1287
a(F-0.94084696624801367
F-2.8167289000467246
tp1288
a(F-0.94328044039568759
F-2.2026688427047176
tp1289
a(F-0.9927540504941561
F-0.16654572436705628
tp1290
a(F-0.99160199479217503
F0.61806935116528372
tp1291
a(F-0.92634131030809641
F-0.08106569623894444
tp1292
a(F-0.95010091019806886
F4.176901862409686
tp1293
a(F-0.99106467256447139
F2.839309890052977
tp1294
a(F-1.073480266526655
F4.835084660132958
tp1295
a(F-1.1122853076720993
F1.9014148225616872
tp1296
a(F-1.1210686733247357
F1.3436862706475505
tp1297
a(F-1.1408508763822507
F1.2240881353952684
tp1298
a(F-1.1351671329746509
F0.44845842795739266
tp1299
a(F-1.1773816053923483
F-2.2320876750363237
tp1300
a(F-1.1019936561537076
F-4.078546448251851
tp1301
a(F-1.1011125103106458
F-4.198791653471818
tp1302
a(F-1.0978817194014692
F-4.179259118748355
tp1303
a(F-1.0771832579627425
F-4.686221519259013
tp1304
a(F-1.0798718672797953
F-3.764904968057219
tp1305
a(F-1.0793453133519826
F-3.2104791609771004
tp1306
aa(lp1307
(F-1.2310076499296514
F-1.2244632853520319
tp1308
a(F-1.233169826531709
F-1.4603979536006815
tp1309
a(F-1.2329021810995648
F-1.1785853473519108
tp1310
a(F-1.2310076499296514
F-1.2244632853520319
tp1311
aa(lp1312
(F-1.1560170133858172
F7.493556900092081
tp1313
a(F-1.2318701611076435
F5.148036178683972
tp1314
a(F-1.1432615827644774
F5.9993575827548575
tp1315
a(F-1.1560170133858172
F7.493556900092081
tp1316
aa(lp1317
(F-1.2316946189993132
F-3.3798205266109864
tp1318
a(F-1.2104431726325213
F-1.722452354851777
tp1319
a(F-1.2002295582857396
F-1.9697850845532283
tp1320
a(F-1.2232619760437196
F-3.837618369553539
tp1321
a(F-1.1466490265405032
F-6.990681130428622
tp1322
a(F-1.091097768193313
F-2.4857051242258565
tp1323
a(F-1.1488116734126947
F-0.11044654833369094
tp1324
a(F-1.1473736688223521
F0.868915889026038
tp1325
a(F-1.0824035844482793
F0.17289402873117865
tp1326
a(F-1.104170644265606
F4.0737776706504505
tp1327
a(F-1.1446066401333894
F2.753418886630204
tp1328
a(F-1.1444184594165243
F2.881580595411922
tp1329
a(F-1.2244850886618686
F4.820472871630052
tp1330
a(F-1.2539000167636871
F2.596697691926103
tp1331
a(F-1.2563865932304772
F2.6576008067971806
tp1332
a(F-1.2779423795562774
F1.288845597425782
tp1333
a(F-1.2908096696054567
F1.2110532559379372
tp1334
a(F-1.2871126913276552
F0.70654663514618221
tp1335
a(F-1.3338381206093288
F-2.2604374392346536
tp1336
a(F-1.2280285168090561
F-4.852006426063258
tp1337
a(F-1.2324046929658259
F-3.352404569209753
tp1338
a(F-1.2316946189993132
F-3.3798205266109864
tp1339
aa(lp1340
(F-1.386510374587445
F-1.1301539347685408
tp1341
a(F-1.3885546552863701
F-1.3532239134415667
tp1342
a(F-1.3883016036204836
F-1.086777559743977
tp1343
a(F-1.386510374587445
F-1.1301539347685408
tp1344
aa(lp1345
(F-1.382939978180504
F-3.4630667764242213
tp1346
a(F-1.3609599990923798
F-1.748881439208044
tp1347
a(F-1.3539357642517995
F-1.9189802032887693
tp1348
a(F-1.3777164750956406
F-3.8474969452928214
tp1349
a(F-1.3011035255924242
F-7.0005597061679055
tp1350
a(F-1.245552267245234
F-2.495583699965138
tp1351
a(F-1.3048692963312298
F-0.054347372300325603
tp1352
a(F-1.3031453428525293
F1.1197624268867923
tp1353
a(F-1.2384658585884605
F0.42685375370129819
tp1354
a(F-1.2582403783331415
F3.9706534788912133
tp1355
a(F-1.301009933633031
F2.574096851140663
tp1356
a(F-1.3004028516614632
F2.987554000960964
tp1357
a(F-1.3274439417504684
F3.64238062733774
tp1358
a(F-1.2806731476342161
F4.091738678906445
tp1359
a(F-1.3098110003741503
F7.5050111089129
tp1360
a(F-1.3910644762862123
F4.992502173395929
tp1361
a(F-1.3839872503861734
F4.163460299201006
tp1362
a(F-1.4063761205965264
F2.4708566762018513
tp1363
a(F-1.4128431084474542
F2.6292510425988507
tp1364
a(F-1.4348160857878174
F1.2340049242040152
tp1365
a(F-1.440768462828661
F1.1980183764806078
tp1366
a(F-1.4390582496806577
F0.96463484233496999
tp1367
a(F-1.4902946358263076
F-2.2887872034329817
tp1368
a(F-1.3826702317627042
F-4.924805653361446
tp1369
a(F-1.3796962199623692
F-4.735961039534096
tp1370
a(F-1.3834705987128348
F-3.4425795165094764
tp1371
a(F-1.382939978180504
F-3.4630667764242213
tp1372
aa(lp1373
(F-1.5341853373616967
F-3.5463130262374545
tp1374
a(F-1.51147682555224
F-1.7753105235643112
tp1375
a(F-1.5076419702178612
F-1.8681753220243103
tp1376
a(F-1.5321709741475633
F-3.857375521032102
tp1377
a(F-1.4555580246443487
F-7.010438281907189
tp1378
a(F-1.4000067662971567
F-2.505462275704419
tp1379
a(F-1.4609269192497685
F0.0017518037330397362
tp1380
a(F-1.4589170168827064
F1.3706089647475466
tp1381
a(F-1.3945281327286452
F0.68081347867142128
tp1382
a(F-1.4123101124006787
F3.867529287131976
tp1383
a(F-1.4280640078723828
F3.3531164769068074
tp1384
a(F-1.4636049873624835
F7.516465317733722
tp1385
a(F-1.5448584632745472
F5.003956382216749
tp1386
a(F-1.536551993336607
F4.0309181462526045
tp1387
a(F-1.5588522244293692
F2.3450156604776
tp1388
a(F-1.5692996236644348
F2.6009012784005225
tp1389
a(F-1.6467511510432864
F-2.3171369676313116
tp1390
a(F-1.5391267469796848
F-4.953155417559774
tp1391
a(F-1.5317570719109632
F-4.485193776577388
tp1392
a(F-1.5345365044598474
F-3.5327544638091997
tp1393
a(F-1.5341853373616967
F-3.5463130262374545
tp1394
aa(lp1395
(F-1.6854306965428858
F-3.6295592760506867
tp1396
a(F-1.6619936520120966
F-1.8017396079205756
tp1397
a(F-1.6613481761839193
F-1.817370440759852
tp1398
a(F-1.685221640953099
F-3.753409140331888
tp1399
a(F-1.6856024102068563
F-3.622929411108922
tp1400
a(F-1.6854306965428858
F-3.6295592760506867
tp1401
aa(lp1402
(F-1.6100125236962697
F-7.020316857646468
tp1403
a(F-1.5544612653490777
F-2.5153408514437015
tp1404
a(F-1.6169845421683036
F0.057850979766403299
tp1405
a(F-1.6149926112938857
F1.414468538101353
tp1406
a(F-1.6099429236776643
F1.5706142920510704
tp1407
a(F-1.5505904068688263
F0.93477320364154082
tp1408
a(F-1.5663798464682142
F3.764405095372741
tp1409
a(F-1.5811532034429767
F3.282009862301834
tp1410
a(F-1.6173989743508148
F7.527919526554541
tp1411
a(F-1.6986524502628768
F5.01541059103757
tp1412
a(F-1.689116736287037
F3.898375993304203
tp1413
a(F-1.7113283282622085
F2.21917464475335
tp1414
a(F-1.7257561388814118
F2.5725515142021944
tp1415
a(F-1.8032076662602634
F-2.345486731829638
tp1416
a(F-1.6955832621966618
F-4.981505181758105
tp1417
a(F-1.6838179238595536
F-4.234426513620682
tp1418
a(F-1.6846524525204476
F-3.9484552262128654
tp1419
a(F-1.6100125236962697
F-7.020316857646468
tp1420
aa(lp1421
(F-1.7644670227481925
F-7.030195433385751
tp1422
a(F-1.7089157644010005
F-2.525219427182984
tp1423
a(F-1.7730421650868422
F0.11395015579976864
tp1424
a(F-1.7712265681523505
F1.3504743303186313
tp1425
a(F-1.7584959745518098
F1.744128014874974
tp1426
a(F-1.7066526810090092
F1.188732928611664
tp1427
a(F-1.7204495805357514
F3.6612809036135037
tp1428
a(F-1.7342423990135725
F3.2109032476968586
tp1429
a(F-1.771192961339148
F7.539373735375364
tp1430
a(F-1.8524464372512117
F5.026864799858393
tp1431
a(F-1.8416814792374687
F3.7658338403558016
tp1432
a(F-1.8638044320950513
F2.093333629029095
tp1433
a(F-1.8822126540983923
F2.5442017500038645
tp1434
a(F-1.959664181477244
F-2.373836496027968
tp1435
a(F-1.8520397774136406
F-5.009854945956431
tp1436
a(F-1.8369062807662928
F-4.048904041220905
tp1437
a(F-1.7644670227481925
F-7.030195433385751
tp1438
aa(lp1439
(F-1.9189215218001117
F-7.040074009125035
tp1440
a(F-1.8633702634529215
F-2.5350980029222665
tp1441
a(F-1.9290997880053773
F0.1700493318331322
tp1442
a(F-1.9274605250108152
F1.2864801225359095
tp1443
a(F-1.9070490254259536
F1.917641737698876
tp1444
a(F-1.8627149551491904
F1.4426926535817835
tp1445
a(F-1.8745193146032868
F3.5581567118542665
tp1446
a(F-1.8873315945841682
F3.1397966330918834
tp1447
a(F-1.924986948327481
F7.550827944196186
tp1448
a(F-2.006240424239543
F5.038319008679213
tp1449
a(F-1.9942462221879005
F3.6332916874074
tp1450
a(F-2.0162805359278906
F1.9674926133048434
tp1451
a(F-2.0386691693153693
F2.5158519858055364
tp1452
a(F-2.1161206966942228
F-2.402186260226296
tp1453
a(F-2.0084962926306194
F-5.038204710154763
tp1454
a(F-1.9923989949411656
F-4.016054103527615
tp1455
a(F-1.9189215218001117
F-7.040074009125035
tp1456
aa(lp1457
(F-2.083054937937634
F0.49677923941316138
tp1458
a(F-2.0846685633878757
F0.55908132157888346
tp1459
a(F-2.08369448186928
F1.222485914753186
tp1460
a(F-2.055602076300101
F2.0911554605227813
tp1461
a(F-2.0187772292893733
F1.6966523785519065
tp1462
a(F-2.028589048670824
F3.4550325200950294
tp1463
a(F-2.040420790154764
F3.068690018486908
tp1464
a(F-2.078780935315814
F7.562282153017009
tp1465
a(F-2.160034411227878
F5.049773217500032
tp1466
a(F-2.1468109651383322
F3.500749534458997
tp1467
a(F-2.1687566397607334
F1.8416515975805918
tp1468
a(F-2.19512568453235
F2.4875022216072082
tp1469
a(F-2.270530464988328
F-2.3005711291243456
tp1470
a(F-2.269964449966329
F-2.4945297696339974
tp1471
a(F-2.164952807847598
F-5.06655447435309
tp1472
a(F-2.147891709116042
F-3.9832041658343247
tp1473
a(F-2.073376020852036
F-7.0499525848643145
tp1474
a(F-2.017824762504844
F-2.5449765786615473
tp1475
a(F-2.085157410923916
F0.22614850786649754
tp1476
a(F-2.084980545243564
F0.34660403697887077
tp1477
a(F-2.083054937937634
F0.49677923941316138
tp1478
aa(lp1479
(F-2.234300297118825
F0.41353298959992912
tp1480
a(F-2.2406616340664947
F0.65914422307312215
tp1481
a(F-2.2399284387277447
F1.1584917069704659
tp1482
a(F-2.204155127174243
F2.2646691833466797
tp1483
a(F-2.1748395034295545
F1.950612103522026
tp1484
a(F-2.1826587827383594
F3.351908328335794
tp1485
a(F-2.193509985725358
F2.997583403881933
tp1486
a(F-2.2325749223041456
F7.5737363618378275
tp1487
a(F-2.3138283982162093
F5.061227426320855
tp1488
a(F-2.299375708088764
F3.3682073815105955
tp1489
a(F-2.3212327435935727
F1.7158105818563403
tp1490
a(F-2.351582199749327
F2.45915245740888
tp1491
a(F-2.42259131693692
F-2.0498038661676405
tp1492
a(F-2.420809708812639
F-2.6603146764382384
tp1493
a(F-2.321409323064577
F-5.094904238551417
tp1494
a(F-2.3033844232909146
F-3.950354228141034
tp1495
a(F-2.227830519903957
F-7.059831160603597
tp1496
a(F-2.172279261556767
F-2.5548551544008298
tp1497
a(F-2.2377907424805805
F0.14131843309420944
tp1498
a(F-2.234300297118825
F0.41353298959992912
tp1499
aa(lp1500
(F-2.3855456563000157
F0.33028673978669509
tp1501
a(F-2.396654704745117
F0.75920712456736261
tp1502
a(F-2.3961623955862095
F1.094497499187744
tp1503
a(F-2.35270817804839
F2.438182906170585
tp1504
a(F-2.3309017775697374
F2.204571828492149
tp1505
a(F-2.3367285168058967
F3.248784136576557
tp1506
a(F-2.3465991812959537
F2.9264767892769576
tp1507
a(F-2.3863689092924787
F7.58519057065865
tp1508
a(F-2.4676223852045425
F5.072681635141677
tp1509
a(F-2.451940451039196
F3.235665228562194
tp1510
a(F-2.4737088474264155
F1.589969566132087
tp1511
a(F-2.5080387149663075
F2.43080269321055
tp1512
a(F-2.574652168885512
F-1.7990366032109328
tp1513
a(F-2.571654967658951
F-2.826099583242483
tp1514
a(F-2.4778658382815557
F-5.123254002749747
tp1515
a(F-2.458877137465789
F-3.9175042904477433
tp1516
a(F-2.38228501895588
F-7.06970973634288
tp1517
a(F-2.3267337606086897
F-2.5647337301401123
tp1518
a(F-2.3895288393935115
F0.019644312560483712
tp1519
a(F-2.3855456563000157
F0.33028673978669509
tp1520
aa(lp1521
(F-2.5367910154812066
F0.24704048997346106
tp1522
a(F-2.552647775423736
F0.8592700260616013
tp1523
a(F-2.552396352444674
F1.0305032914050223
tp1524
a(F-2.5012612289225338
F2.611696628994487
tp1525
a(F-2.4869640517099185
F2.4585315534622687
tp1526
a(F-2.490798250873432
F3.1456599448173215
tp1527
a(F-2.4996883768665477
F2.855370174671984
tp1528
a(F-2.540162896280812
F7.596644779479469
tp1529
a(F-2.621416372192874
F5.084135843962498
tp1530
a(F-2.6045051939896275
F3.1031230756137944
tp1531
a(F-2.6261849512592548
F1.4641285504078372
tp1532
a(F-2.6644952301832845
F2.402452929012222
tp1533
a(F-2.7267130208341044
F-1.548269340254226
tp1534
a(F-2.722500226505261
F-2.991884490046724
tp1535
a(F-2.6343223534985345
F-5.151603766948075
tp1536
a(F-2.6086459424576027
F-3.521196003619459
tp1537
a(F-2.608448375319057
F-3.5288240712711065
tp1538
a(F-2.6133524675110156
F-3.926525551207077
tp1539
a(F-2.536739518007801
F-7.079588312082161
tp1540
a(F-2.481188259660609
F-2.574612305879395
tp1541
a(F-2.541266936306439
F-0.10202980797323846
tp1542
a(F-2.5367910154812066
F0.24704048997346106
tp1543
aa(lp1544
(F-2.688036374662399
F0.16379424016022703
tp1545
a(F-2.708640846102359
F0.95933292755583999
tp1546
a(F-2.7086303093031407
F0.9665090836222987
tp1547
a(F-2.6521651096117083
F2.7125183118799434
tp1548
a(F-2.693956883269145
F7.608098988300291
tp1549
a(F-2.7752103591812087
F5.095590052783319
tp1550
a(F-2.7570699369400593
F2.9705809226653894
tp1551
a(F-2.7786610550920976
F1.3382875346835839
tp1552
a(F-2.820951745400265
F2.374103164813892
tp1553
a(F-2.8787738727826984
F-1.2975020772975174
tp1554
a(F-2.8733454853515745
F-3.1576693968509693
tp1555
a(F-2.790778868715515
F-5.179953531146404
tp1556
a(F-2.7636696035815955
F-3.4585620071512775
tp1557
a(F-2.762480695953668
F-3.504465733267777
tp1558
a(F-2.76780696656294
F-3.9364041269463588
tp1559
a(F-2.6911940170597237
F-7.089466887821445
tp1560
a(F-2.6356427587125335
F-2.5844908816186773
tp1561
a(F-2.693005033219368
F-0.22370392850696064
tp1562
a(F-2.688036374662399
F0.16379424016022703
tp1563
aa(lp1564
(F-2.643026325850103
F2.712491278432392
tp1565
a(F-2.6448679849409693
F3.042535753058086
tp1566
a(F-2.6520237004095613
F2.808879784603741
tp1567
a(F-2.643026325850103
F2.712491278432392
tp1568
aa(lp1569
(F-2.8392817338435883
F0.080547990346996556
tp1570
a(F-2.862480111208278
F0.97623739117386243
tp1571
a(F-2.8059590966000414
F2.723972520700764
tp1572
a(F-2.8477508702574763
F7.619553197121114
tp1573
a(F-2.92900434616954
F5.107044261604139
tp1574
a(F-2.9096346798904893
F2.8380387697169898
tp1575
a(F-2.9099950975130042
F2.8107911163994945
tp1576
a(F-2.913000862563388
F2.9268437115737456
tp1577
a(F-2.9232425417806027
F1.8092813505138725
tp1578
a(F-2.931137158924937
F1.2124465189593323
tp1579
a(F-2.977408260617242
F2.345753400615564
tp1580
a(F-3.030834724731289
F-1.0467348143408115
tp1581
a(F-3.0241907441978846
F-3.3234543036552093
tp1582
a(F-2.947235383932492
F-5.208303295344733
tp1583
a(F-2.9186932647055865
F-3.395928010683096
tp1584
a(F-2.9165130165882758
F-3.4801073952644472
tp1585
a(F-2.922261465614861
F-3.9462827026856413
tp1586
a(F-2.8456485161116447
F-7.099345463560726
tp1587
a(F-2.7900972577644545
F-2.594369457357959
tp1588
a(F-2.844743130132297
F-0.34537804904068459
tp1589
a(F-2.8392817338435883
F0.080547990346996556
tp1590
aa(lp1591
(F-2.990527093024781
F-0.0026982594662374737
tp1592
a(F-3.016220855463766
F0.9893379645411553
tp1593
a(F-2.9597530835883727
F2.735426729521585
tp1594
a(F-3.0015448572458077
F7.631007405941933
tp1595
a(F-3.0827983331578714
F5.118498470424962
tp1596
a(F-3.062951648423029
F2.79361398298194
tp1597
a(F-3.06859279587281
F3.0114186983652154
tp1598
a(F-3.085752250559585
F1.1389952131599674
tp1599
a(F-3.133864775834219
F2.317403636417236
tp1600
a(F-3.182895576679879
F-0.79596755138410735
tp1601
a(F-3.1750360030441946
F-3.489239210459452
tp1602
a(F-3.103691899149469
F-5.236653059543061
tp1603
a(F-3.073716925829576
F-3.333294014214914
tp1604
a(F-3.070545337222887
F-3.4557490572611176
tp1605
a(F-3.076715964666782
F-3.956161278424922
tp1606
a(F-3.0001030151635657
F-7.109224039300007
tp1607
a(F-2.9445517568163755
F-2.6042480330972406
tp1608
a(F-2.9964812270452246
F-0.46705216957440676
tp1609
a(F-2.990527093024781
F-0.0026982594662374737
tp1610
aa(lp1611
(F-3.141772452205972
F-0.085944509279471504
tp1612
a(F-3.1699615997192563
F1.0024385379084482
tp1613
a(F-3.113547070576706
F2.7468809383424073
tp1614
a(F-3.155338844234141
F7.642461614762759
tp1615
a(F-3.2365923201462046
F5.129952679245783
tp1616
a(F-3.2167927761544686
F2.810590362575379
tp1617
a(F-3.224184729182232
F3.095993685156687
tp1618
a(F-3.2423478432246817
F1.114051839198165
tp1619
a(F-3.2903212910511996
F2.2890538722189078
tp1620
a(F-3.334956428628473
F-0.54520028842739876
tp1621
a(F-3.3258812618905083
F-3.655024117263695
tp1622
a(F-3.2601484143664496
F-5.265002823741391
tp1623
a(F-3.2287405869535704
F-3.2706600177467333
tp1624
a(F-3.2245776578574983
F-3.431390719257788
tp1625
a(F-3.231170463718705
F-3.9660398541642046
tp1626
a(F-3.1545575142154885
F-7.1191026150392895
tp1627
a(F-3.0990062558682983
F-2.614126608836525
tp1628
a(F-3.1482193239581537
F-0.58872629010813071
tp1629
a(F-3.141772452205972
F-0.085944509279471504
tp1630
aa(lp1631
(F-3.2930178113871627
F-0.16919075909270376
tp1632
a(F-3.3237023439747446
F1.0155391112757393
tp1633
a(F-3.2673410575650372
F2.758335147163228
tp1634
a(F-3.309132831222474
F7.653915823583574
tp1635
a(F-3.3903863071345377
F5.141406888066605
tp1636
a(F-3.370633903885908
F2.827566742168816
tp1637
a(F-3.379776662491654
F3.1805686719481585
tp1638
a(F-3.3989434358897803
F1.089108465236361
tp1639
a(F-3.4467778062681766
F2.2607041080205796
tp1640
a(F-3.4870172805770636
F-0.29443302547069017
tp1641
a(F-3.4767265207368165
F-3.8208090240679384
tp1642
a(F-3.4166049295834267
F-5.29335258793972
tp1643
a(F-3.3837642480775596
F-3.2080260212785525
tp1644
a(F-3.378609978492106
F-3.4070323812544583
tp1645
a(F-3.385624962770626
F-3.975918429903487
tp1646
a(F-3.3090120132674095
F-7.128981190778573
tp1647
a(F-3.2534607549202192
F-2.624005184575805
tp1648
a(F-3.299957420871083
F-0.71040041064185289
tp1649
a(F-3.2930178113871627
F-0.16919075909270376
tp1650
aa(lp1651
(F-3.4442631705683535
F-0.25243700890593779
tp1652
a(F-3.4774430882302347
F1.0286396846430321
tp1653
a(F-3.4211350445533704
F2.7697893559840487
tp1654
a(F-3.462926818210807
F7.665370032404397
tp1655
a(F-3.544180294122871
F5.152861096887424
tp1656
a(F-3.5244750316173494
F2.844543121762257
tp1657
a(F-3.535368595801076
F3.26514365873963
tp1658
a(F-3.5555390285548807
F1.0641650912745568
tp1659
a(F-3.603234321485157
F2.2323543438222497
tp1660
a(F-3.6390781325256576
F-0.043665762513985129
tp1661
a(F-3.6275717795831284
F-3.986593930872182
tp1662
a(F-3.5730614448004054
F-5.321702352138047
tp1663
a(F-3.5387879092015524
F-3.145392024810369
tp1664
a(F-3.5326422991267172
F-3.3826740432511277
tp1665
a(F-3.540079461822547
F-3.9857970056427705
tp1666
a(F-3.4634665123193322
F-7.1388597665178555
tp1667
a(F-3.407915253972142
F-2.633883760315088
tp1668
a(F-3.4516955177840103
F-0.83207453117557684
tp1669
a(F-3.4442631705683535
F-0.25243700890593779
tp1670
aa(lp1671
(F-3.5955085297495444
F-0.33568325871917004
tp1672
a(F-3.631183832485725
F1.041740258010325
tp1673
a(F-3.5749290315417035
F2.7812435648048695
tp1674
a(F-3.61672080519914
F7.676824241225219
tp1675
a(F-3.697974281111204
F5.1643153057082465
tp1676
a(F-3.678316159348789
F2.861519501355694
tp1677
a(F-3.690960529110498
F3.3497186455311017
tp1678
a(F-3.712134621219981
F1.0392217173127545
tp1679
a(F-3.759690836702136
F2.2040045796239216
tp1680
a(F-3.791138984474248
F0.20710150044272346
tp1681
a(F-3.778417038429442
F-4.152378837676424
tp1682
a(F-3.729517960017386
F-5.350052116336377
tp1683
a(F-3.693811570325545
F-3.0827580283421874
tp1684
a(F-3.6866746197613267
F-3.358315705247799
tp1685
a(F-3.6945339608744696
F-3.9956755813820513
tp1686
a(F-3.617921011371255
F-7.148738342257138
tp1687
a(F-3.562369753024065
F-2.6437623360543707
tp1688
a(F-3.6034336146969395
F-0.95374865170930079
tp1689
a(F-3.5955085297495444
F-0.33568325871917004
tp1690
aa(lp1691
(F-3.746753888930737
F-0.41892950853240407
tp1692
a(F-3.784924576741215
F1.0548408313776179
tp1693
a(F-3.7287230185300366
F2.792697773625692
tp1694
a(F-3.7705147921874733
F7.688278450046042
tp1695
a(F-3.851768268099537
F5.175769514529069
tp1696
a(F-3.8321572870802285
F2.8784958809491332
tp1697
a(F-3.846552462419922
F3.4342936323225732
tp1698
a(F-3.8687302138850796
F1.0142783433509504
tp1699
a(F-3.916147351919115
F2.1756548154255917
tp1700
a(F-3.943199836422842
F0.45786876339943205
tp1701
a(F-3.929262297275752
F-4.3181637444806675
tp1702
a(F-3.885974475234365
F-5.378401880534704
tp1703
a(F-3.848835231449536
F-3.0201240318740066
tp1704
a(F-3.8407069403959397
F-3.3339573672444693
tp1705
a(F-3.8489884599263924
F-4.005554157121335
tp1706
a(F-3.7723755104231778
F-7.158616917996419
tp1707
a(F-3.7168242520759858
F-2.6536409117936524
tp1708
a(F-3.7551717116098686
F-1.0754227722430239
tp1709
a(F-3.746753888930737
F-0.41892950853240407
tp1710
aa(lp1711
(F-3.8989798085976464
F-0.46431631584577104
tp1712
a(F-3.938665320996705
F1.0679414047449107
tp1713
a(F-3.8825170055183698
F2.8041519824465126
tp1714
a(F-3.9243087791758064
F7.699732658866861
tp1715
a(F-4.00556225508787
F5.187223723349888
tp1716
a(F-3.985998414811668
F2.8954722605425722
tp1717
a(F-4.002144395729342
F3.5188686191140413
tp1718
a(F-4.025325806550178
F0.98933496938914622
tp1719
a(F-4.072603867136092
F2.1473050512272636
tp1720
a(F-4.095260688371432
F0.70863602635613887
tp1721
a(F-4.080107556122066
F-4.483948651284912
tp1722
a(F-4.042430990451344
F-5.406751644733033
tp1723
a(F-4.003858892573529
F-2.957490035405826
tp1724
a(F-3.9947392610305474
F-3.3095990292411397
tp1725
a(F-4.003442958978315
F-4.015432732860616
tp1726
a(F-3.9268300094750987
F-7.168495493735702
tp1727
a(F-3.8712787511279085
F-2.663519487532934
tp1728
a(F-3.906909808522798
F-1.1970968927767478
tp1729
a(F-3.9026524648456764
F-0.86507309614108152
tp1730
a(F-3.8989798085976464
F-0.46431631584577104
tp1731
aa(lp1732
(F-4.054571741907068
F-0.37974132905429947
tp1733
a(F-4.092406065252195
F1.0810419781122036
tp1734
a(F-4.036310992506703
F2.8156061912673334
tp1735
a(F-4.07810276616414
F7.711186867687683
tp1736
a(F-4.1593562420762
F5.19867793217071
tp1737
a(F-4.139839542543111
F2.9124486401360095
tp1738
a(F-4.157736329038766
F3.6034436059055146
tp1739
a(F-4.181921399215277
F0.96439159542734387
tp1740
a(F-4.229060382353072
F2.1189552870289354
tp1741
a(F-4.247321540320026
F0.95940328931284569
tp1742
a(F-4.230952814968376
F-4.649733558089153
tp1743
a(F-4.198887505668321
F-5.435101408931363
tp1744
a(F-4.15888255369752
F-2.894856038937643
tp1745
a(F-4.148771581665159
F-3.2852406912378083
tp1746
a(F-4.157897458030238
F-4.025311308599898
tp1747
a(F-4.08128450852702
F-7.178374069474984
tp1748
a(F-4.0257332501798295
F-2.6733980632722165
tp1749
a(F-4.061936830661242
F-1.1834128562480464
tp1750
a(F-4.054571741907068
F-0.37974132905429947
tp1751
aa(lp1752
(F-4.210163675216492
F-0.29516634226282967
tp1753
a(F-4.246146809507685
F1.0941425514794965
tp1754
a(F-4.1901049794950325
F2.827060400088156
tp1755
a(F-4.231896753152469
F7.722641076508502
tp1756
a(F-4.313150229064533
F5.210132140991531
tp1757
a(F-4.293680670274547
F2.9294250197294502
tp1758
a(F-4.313328262348186
F3.6880185926969844
tp1759
a(F-4.338516991880375
F0.93944822146553975
tp1760
a(F-4.385516897570049
F2.0906055228306055
tp1761
a(F-4.399382392268617
F1.2101705522695525
tp1762
a(F-4.381798073814686
F-4.815518464893396
tp1763
a(F-4.355344020885298
F-5.463451173129692
tp1764
a(F-4.313906214821511
F-2.8322220424694615
tp1765
a(F-4.302803902299768
F-3.2608823532344795
tp1766
a(F-4.312351957082157
F-4.0351898843391805
tp1767
a(F-4.2357390075789425
F-7.188252645214267
tp1768
a(F-4.180187749231752
F-2.6832766390114973
tp1769
a(F-4.217845793924912
F-1.1334318785720106
tp1770
a(F-4.210163675216492
F-0.29516634226282967
tp1771
aa(lp1772
(F-4.4669422318446586
F3.6962243923411275
tp1773
a(F-4.47632859244883
F2.9641963202038575
tp1774
a(F-4.495112584545474
F0.91450484750373562
tp1775
a(F-4.54197341278703
F2.0622557586322774
tp1776
a(F-4.551443244217211
F1.460937815226261
tp1777
a(F-4.532643332660996
F-4.981303371697639
tp1778
a(F-4.511800536102278
F-5.491800937328019
tp1779
a(F-4.468929875945506
F-2.76958804600128
tp1780
a(F-4.456836222934378
F-3.2365240152311507
tp1781
a(F-4.4626968125120285
F-3.7117934549350746
tp1782
a(F-4.460317784894968
F-4.312114537592367
tp1783
a(F-4.390193506630865
F-7.198131220953547
tp1784
a(F-4.334642248283675
F-2.6931552147507807
tp1785
a(F-4.3737547571885855
F-1.0834509008959765
tp1786
a(F-4.365755608525916
F-0.2105913554713581
tp1787
a(F-4.399887553763175
F1.1072431248467893
tp1788
a(F-4.343898966483369
F2.8385146089089766
tp1789
a(F-4.385690740140802
F7.7340952853293246
tp1790
a(F-4.466944216052866
F5.221586349812352
tp1791
a(F-4.447521798005987
F2.9464013993228892
tp1792
a(F-4.4669422318446586
F3.6962243923411275
tp1793
aa(lp1794
(F-4.618187591025851
F3.6129781425278935
tp1795
a(F-4.648200472647865
F1.272318881761688
tp1796
a(F-4.651708177210573
F0.88956147354193149
tp1797
a(F-4.6984299280040105
F2.0339059944339475
tp1798
a(F-4.703504096165801
F1.7117050781829697
tp1799
a(F-4.6834885915073095
F-5.147088278501883
tp1800
a(F-4.668257051319259
F-5.520150701526349
tp1801
a(F-4.623953537069497
F-2.706954049533099
tp1802
a(F-4.608606787204941
F-3.2994920953942994
tp1803
a(F-4.602563469413539
F-4.82445593076858
tp1804
a(F-4.544648005682788
F-7.20800979669283
tp1805
a(F-4.489096747335598
F-2.7030337904900623
tp1806
a(F-4.529663720452255
F-1.0334699232199416
tp1807
a(F-4.521347541835336
F-0.12601636867988653
tp1808
a(F-4.5536282980186655
F1.1203436982140822
tp1809
a(F-4.497692953471699
F2.8499688177297973
tp1810
a(F-4.539484727129135
F7.745549494150147
tp1811
a(F-4.620738203041199
F5.233040558633174
tp1812
a(F-4.601362925737426
F2.9633777789163265
tp1813
a(F-4.618187591025851
F3.6129781425278935
tp1814
aa(lp1815
(F-4.76943295020704
F3.5297318927146613
tp1816
a(F-4.804728845891518
F0.77705835268706736
tp1817
a(F-4.8548864432209875
F2.0055562302356194
tp1818
a(F-4.855564948114395
F1.9624723411396747
tp1819
a(F-4.834333850353623
F-5.312873185306125
tp1820
a(F-4.824713566536236
F-5.548500465724677
tp1821
a(F-4.778977198193488
F-2.6443200530649165
tp1822
a(F-4.751234346643244
F-3.715471612142963
tp1823
a(F-4.74480915393211
F-5.336797323944795
tp1824
a(F-4.699102504734711
F-7.217888372432113
tp1825
a(F-4.643551246387517
F-2.712912366229345
tp1826
a(F-4.685572683715925
F-0.98348894554390576
tp1827
a(F-4.676939475144756
F-0.041441381888414952
tp1828
a(F-4.707369042274156
F1.1334442715813733
tp1829
a(F-4.651486940460032
F2.861423026550618
tp1830
a(F-4.6932787141174686
F7.7570037029709695
tp1831
a(F-4.774532190029532
F5.244494767453995
tp1832
a(F-4.755204053468869
F2.9803541585097655
tp1833
a(F-4.76943295020704
F3.5297318927146613
tp1834
aa(lp1835
(F-4.920678309388233
F3.446485642901429
tp1836
a(F-4.956683984661069
F0.63845746590429719
tp1837
a(F-5.006597843232626
F1.8609855091164
tp1838
a(F-4.985179109199933
F-5.478658092110369
tp1839
a(F-4.981170081753216
F-5.5768502299230045
tp1840
a(F-4.934000859317479
F-2.5816860565967357
tp1841
a(F-4.893861906081547
F-4.131451128891628
tp1842
a(F-4.887054838450684
F-5.849138717121006
tp1843
a(F-4.853557003786634
F-7.2277669481713955
tp1844
a(F-4.79800574543944
F-2.7227909419686256
tp1845
a(F-4.841481646979599
F-0.93350796786787171
tp1846
a(F-4.83253140845418
F0.043133604903054845
tp1847
a(F-4.861109786529646
F1.1465448449486662
tp1848
a(F-4.805280927448365
F2.8728772353714405
tp1849
a(F-4.847072701105802
F7.7684579117917885
tp1850
a(F-4.9283261770178655
F5.255948976274816
tp1851
a(F-4.909045181200305
F2.9973305381032027
tp1852
a(F-4.920678309388233
F3.446485642901429
tp1853
aa(lp1854
(F-5.071923668569426
F3.363239393088195
tp1855
a(F-5.1086391234306205
F0.49985657912153059
tp1856
a(F-5.157443102078936
F1.6952006023121573
tp1857
a(F-5.13637146650327
F-5.525501376818345
tp1858
a(F-5.089024520441473
F-2.519052060128555
tp1859
a(F-5.03648946551985
F-4.5474306456402935
tp1860
a(F-5.029300522969255
F-6.36148011029722
tp1861
a(F-5.008011502838553
F-7.2376455239106745
tp1862
a(F-4.952460244491363
F-2.7326695177079072
tp1863
a(F-4.997390610243272
F-0.88352699019183589
tp1864
a(F-4.988123341763604
F0.1277085916945282
tp1865
a(F-5.014850530785136
F1.159645418315959
tp1866
a(F-4.959074914436698
F2.884331444192261
tp1867
a(F-5.000866688094135
F7.779912120612611
tp1868
a(F-5.082120164006199
F5.267403185095638
tp1869
a(F-5.062886308931748
F3.0143069176966435
tp1870
a(F-5.071923668569426
F3.363239393088195
tp1871
aa(lp1872
(F-5.223169027750615
F3.279993143274961
tp1873
a(F-5.260594262200172
F0.36125569233876043
tp1874
a(F-5.30828836092525
F1.5294156955079146
tp1875
a(F-5.288432318451861
F-5.274734113861639
tp1876
a(F-5.244048181565461
F-2.456418063660374
tp1877
a(F-5.188002807206598
F-4.620330090327376
tp1878
a(F-5.182748673991867
F-4.0470040374172545
tp1879
a(F-5.171546207487825
F-6.873821503473431
tp1880
a(F-5.1624660018904756
F-7.247524099649958
tp1881
a(F-5.106914743543285
F-2.7425480934471906
tp1882
a(F-5.153299573506942
F-0.83354601251580185
tp1883
a(F-5.143715275073024
F0.21228357848599799
tp1884
a(F-5.168591275040626
F1.1727459916832519
tp1885
a(F-5.112868901425031
F2.895785653013082
tp1886
a(F-5.154660675082468
F7.79136632943343
tp1887
a(F-5.235914150994532
F5.278857393916457
tp1888
a(F-5.216727436663188
F3.0312832972900807
tp1889
a(F-5.223169027750615
F3.279993143274961
tp1890
aa(lp1891
(F-5.374414386931811
F3.1967468934617287
tp1892
a(F-5.4125494009697235
F0.22265480555599382
tp1893
a(F-5.45913361977156
F1.36363078870367
tp1894
a(F-5.440493170400455
F-5.023966850904931
tp1895
a(F-5.399071842689452
F-2.3937840671921915
tp1896
a(F-5.343594740516021
F-4.535755103535902
tp1897
a(F-5.330674816551539
F-3.1259452057420747
tp1898
a(F-5.314938975405671
F-7.096709195813264
tp1899
a(F-5.261369242595208
F-2.752426669186473
tp1900
a(F-5.309208536770615
F-0.78356503483976603
tp1901
a(F-5.299307208382448
F0.29685856527747134
tp1902
a(F-5.3223320192961125
F1.185846565050543
tp1903
a(F-5.266662888413364
F2.9072398618339044
tp1904
a(F-5.308454662070801
F7.802820538254252
tp1905
a(F-5.389708137982865
F5.29031160273728
tp1906
a(F-5.370568564394631
F3.0482596768835197
tp1907
a(F-5.374414386931811
F3.1967468934617287
tp1908
aa(lp1909
(F-5.525659746113
F3.1135006436484964
tp1910
a(F-5.564504539739271
F0.08405391877322721
tp1911
a(F-5.60997887861787
F1.197845881899429
tp1912
a(F-5.592554022349045
F-4.773199587948225
tp1913
a(F-5.55409550381345
F-2.331150070724009
tp1914
a(F-5.499186673825442
F-4.451180116744433
tp1915
a(F-5.478600959111212
F-2.204886374066901
tp1916
a(F-5.461660939562414
F-6.479511352289532
tp1917
a(F-5.415823741647127
F-2.7623052449257557
tp1918
a(F-5.465117500034282
F-0.73358405716373198
tp1919
a(F-5.454899141691868
F0.38143355206894114
tp1920
a(F-5.476072763551603
F1.1989471384178358
tp1921
a(F-5.4204568754016975
F2.918694070654725
tp1922
a(F-5.462248649059134
F7.814274747075075
tp1923
a(F-5.543502124971194
F5.3017658115581
tp1924
a(F-5.524409692126067
F3.0652360564769587
tp1925
a(F-5.525659746113
F3.1135006436484964
tp1926
aa(lp1927
(F-5.677446700931487
F2.9880161689289615
tp1928
a(F-5.716459678508819
F-0.054546968009541175
tp1929
a(F-5.76082413746418
F1.0320609750951881
tp1930
a(F-5.7446148742976355
F-4.52243232499152
tp1931
a(F-5.709119164937437
F-2.26851607425583
tp1932
a(F-5.654778607134862
F-4.366605129952962
tp1933
a(F-5.626527101670884
F-1.2838275423917365
tp1934
a(F-5.6083829037191535
F-5.862313508765801
tp1935
a(F-5.5702782406990465
F-2.7721838206650364
tp1936
a(F-5.621026463297952
F-0.68360307948769616
tp1937
a(F-5.610491075001288
F0.46600853886041094
tp1938
a(F-5.629813507807093
F1.2120477117851287
tp1939
a(F-5.574250862390027
F2.930148279475546
tp1940
a(F-5.616042636047464
F7.825728955895894
tp1941
a(F-5.697296111959524
F5.313220020378923
tp1942
a(F-5.677446700931487
F2.9880161689289615
tp1943
aa(lp1944
(F-5.829736751877622
F2.823295987853596
tp1945
a(F-5.868414817278371
F-0.19314785479231134
tp1946
a(F-5.911669396310494
F0.86627606829094184
tp1947
a(F-5.8966757262462295
F-4.271665062034809
tp1948
a(F-5.864142826061432
F-2.2058820777876473
tp1949
a(F-5.810370540444286
F-4.28203014316149
tp1950
a(F-5.766083008310716
F0.55058352565188429
tp1951
a(F-5.783554252062583
F1.2251482851524216
tp1952
a(F-5.728044849378364
F2.9416024882963665
tp1953
a(F-5.7698366230358005
F7.83718316471672
tp1954
a(F-5.851090098947864
F5.3246742291997435
tp1955
a(F-5.829736751877622
F2.823295987853596
tp1956
aa(lp1957
(F-5.755104867875897
F-5.2451156652420545
tp1958
a(F-5.724732739750973
F-2.782062396404318
tp1959
a(F-5.772686959717248
F-0.80847090589356085
tp1960
a(F-5.755104867875897
F-5.2451156652420545
tp1961
aa(lp1962
(F-5.982026802823746
F2.6585758067782344
tp1963
a(F-6.020369956047922
F-0.33174874157507972
tp1964
a(F-6.062514655156804
F0.70049116148670265
tp1965
a(F-6.04873657819482
F-4.020897799078104
tp1966
a(F-6.019166487185419
F-2.1432480813194656
tp1967
a(F-5.965962473753706
F-4.197455156370019
tp1968
a(F-5.921674941620132
F0.63515851244335408
tp1969
a(F-5.937294996318073
F1.2382488585197145
tp1970
a(F-5.881838836366693
F2.953056697117187
tp1971
a(F-5.92363061002413
F7.848637373537535
tp1972
a(F-6.004884085936194
F5.336128438020566
tp1973
a(F-5.982026802823746
F2.6585758067782344
tp1974
aa(lp1975
(F-5.901826832032636
F-4.627917821718325
tp1976
a(F-5.879187238802892
F-2.7919409721436015
tp1977
a(F-5.914932644235819
F-1.3208122990697682
tp1978
a(F-5.901826832032636
F-4.627917821718325
tp1979
aa(lp1980
(F-6.134316853769882
F2.493855625702871
tp1981
a(F-6.172325094817474
F-0.4703496283578481
tp1982
a(F-6.213359914003117
F0.53470625468245636
tp1983
a(F-6.200797430143414
F-3.770130536121396
tp1984
a(F-6.174190148309414
F-2.080614084851282
tp1985
a(F-6.12155440706313
F-4.112880169578547
tp1986
a(F-6.077266874929556
F0.71973349923482566
tp1987
a(F-6.091035740573567
F1.2513494318870073
tp1988
a(F-6.03563282335503
F2.9645109059380097
tp1989
a(F-6.077424597012467
F7.860091582358358
tp1990
a(F-6.158678072924527
F5.347582646841387
tp1991
a(F-6.134316853769882
F2.493855625702871
tp1992
aa(lp1993
(F-6.04854879618938
F-4.010719978194581
tp1994
a(F-6.033641737854815
F-2.801819547882884
tp1995
a(F-6.057178328754389
F-1.8331536922459861
tp1996
a(F-6.04854879618938
F-4.010719978194581
tp1997
aa(lp1998
(F-6.28660690471601
F2.3291354446275108
tp1999
a(F-6.324280233587025
F-0.60895051514061649
tp2000
a(F-6.364205172849427
F0.3689213478782154
tp2001
a(F-6.352858282092008
F-3.519363273164691
tp2002
a(F-6.329213809433405
F-2.0179800883831023
tp2003
a(F-6.277146340372553
F-4.0283051827870775
tp2004
a(F-6.232858808238976
F0.80430848602629723
tp2005
a(F-6.244776484829053
F1.2644500052542984
tp2006
a(F-6.189426810343356
F2.975965114758832
tp2007
a(F-6.231218584000796
F7.87154579117918
tp2008
a(F-6.3124720599128565
F5.359036855662207
tp2009
a(F-6.28660690471601
F2.3291354446275108
tp2010
aa(lp2011
(F-6.195270760346119
F-3.3935221346708513
tp2012
a(F-6.188096236906738
F-2.8116981236221648
tp2013
a(F-6.19942401327296
F-2.3454950854221925
tp2014
a(F-6.195270760346119
F-3.3935221346708513
tp2015
aa(lp2016
(F-6.438896955662141
F2.164415263552147
tp2017
a(F-6.476235372356577
F-0.74755140192338665
tp2018
a(F-6.515050431695737
F0.20313644107397089
tp2019
a(F-6.504919134040598
F-3.2685960102079807
tp2020
a(F-6.484237470557396
F-1.9553460919149206
tp2021
a(F-6.432738273681977
F-3.943730195995605
tp2022
a(F-6.3884507415484
F0.88888347281777058
tp2023
a(F-6.39851722908454
F1.277550578621593
tp2024
a(F-6.343220797331693
F2.987419323579653
tp2025
a(F-6.385012570989129
F7.883000000000003
tp2026
a(F-6.466266046901193
F5.370491064483028
tp2027
a(F-6.438896955662141
F2.164415263552147
tp2028
aa(lp2029
(F-6.591187006608269
F1.9996950824767872
tp2030
a(F-6.628190511126125
F-0.88615228870615148
tp2031
a(F-6.665895690542051
F0.037351534269731701
tp2032
a(F-6.656979985989189
F-3.0178287472512766
tp2033
a(F-6.639261131681387
F-1.8927120954467407
tp2034
a(F-6.588330206991394
F-3.8591552092041344
tp2035
a(F-6.54404267485782
F0.9734584596092386
tp2036
a(F-6.55225797334003
F1.2906511519888841
tp2037
a(F-6.497014784320022
F2.998873532400472
tp2038
a(F-6.535581236610966
F7.516632939819782
tp2039
a(F-6.557986684883861
F7.301368932212682
tp2040
a(F-6.620060033889523
F5.381945273303849
tp2041
a(F-6.591187006608269
F1.9996950824767872
tp2042
aa(lp2043
(F-6.743477057554401
F1.8349749014014218
tp2044
a(F-6.791734455711357
F-1.9285466197609154
tp2045
a(F-6.743922140300818
F-3.7745802224126628
tp2046
a(F-6.699634608167244
F1.0580334464007102
tp2047
a(F-6.705998717595524
F1.303751725356177
tp2048
a(F-6.650808771308359
F3.0103277412212943
tp2049
a(F-6.6729928014807065
F5.609014035971342
tp2050
a(F-6.767909824732165
F4.69708321600363
tp2051
a(F-6.743477057554401
F1.8349749014014218
tp2052
aa(lp2053
(F-6.816740949388361
F-0.12843337253451459
tp2054
a(F-6.809040837937783
F-2.7670614842945653
tp2055
a(F-6.7811967369781065
F-0.99900915427111769
tp2056
a(F-6.816740949388361
F-0.12843337253451459
tp2057
aa(lp2058
(F-6.895767108500529
F1.67025472032606
tp2059
a(F-6.942979814892546
F-2.0117928695741476
tp2060
a(F-6.899514073610238
F-3.690005235621191
tp2061
a(F-6.855226541476668
F1.1426084331921818
tp2062
a(F-6.859739461851014
F1.3168522987234699
tp2063
a(F-6.804602758296689
F3.021781950042115
tp2064
a(F-6.810404366350447
F3.7013951321229293
tp2065
a(F-6.905321389601902
F2.7894643121552107
tp2066
a(F-6.895767108500529
F1.67025472032606
tp2067
aa(lp2068
(F-6.967586208234671
F-0.29421827933875733
tp2069
a(F-6.961101689886377
F-2.5162942213378603
tp2070
a(F-6.9376532521950836
F-1.027358918469445
tp2071
a(F-6.967586208234671
F-0.29421827933875733
tp2072
aa(lp2073
(F-7.038113337924912
F2.281038145516167
tp2074
a(F-7.094225174073738
F-2.0950391193873816
tp2075
a(F-7.055106006919662
F-3.6054302488297196
tp2076
a(F-7.010818474786092
F1.227183419983655
tp2077
a(F-7.038113337924912
F2.281038145516167
tp2078
aa(lp2079
(F-7.118431467080988
F-0.46000318614300184
tp2080
a(F-7.113162541834967
F-2.26552695838115
tp2081
a(F-7.094109767412064
F-1.0557086826677748
tp2082
a(F-7.118431467080988
F-0.46000318614300184
tp2083
aa(lp2084
(F-7.189358697106101
F2.1977918957029328
tp2085
a(F-7.245470533254931
F-2.1782853692006148
tp2086
a(F-7.210697940229082
F-3.52085526203825
tp2087
a(F-7.166410408095512
F1.311758406775125
tp2088
a(F-7.189358697106101
F2.1977918957029328
tp2089
aa(lp2090
(F-7.269276725927295
F-0.6257880929472428
tp2091
a(F-7.2652233937835575
F-2.0147596954244458
tp2092
a(F-7.250566282629041
F-1.084058446866102
tp2093
a(F-7.269276725927295
F-0.6257880929472428
tp2094
aa(lp2095
(F-7.340604056287294
F2.1145456458897005
tp2096
a(F-7.396715892436124
F-2.261531619013849
tp2097
a(F-7.366289873538506
F-3.4362802752467783
tp2098
a(F-7.322002341404932
F1.3963333935665965
tp2099
a(F-7.340604056287294
F2.1145456458897005
tp2100
aa(lp2101
(F-7.420121984773605
F-0.79157299975148554
tp2102
a(F-7.4172842457321515
F-1.7639924324677363
tp2103
a(F-7.407022797846022
F-1.112408211064431
tp2104
a(F-7.420121984773605
F-0.79157299975148554
tp2105
aa(lp2106
(F-7.491849415468483
F2.0312993960764665
tp2107
a(F-7.547961251617309
F-2.34477786882708
tp2108
a(F-7.521881806847929
F-3.3517052884553067
tp2109
a(F-7.4775942747143525
F1.4809083803580663
tp2110
a(F-7.491849415468483
F2.0312993960764665
tp2111
aa(lp2112
(F-7.5709672436199185
F-0.95735790655572828
tp2113
a(F-7.5693450976807455
F-1.5132251695110321
tp2114
a(F-7.563479313062999
F-1.1407579752627601
tp2115
a(F-7.5709672436199185
F-0.95735790655572828
tp2116
aa(lp2117
(F-7.643094774649676
F1.9480531462632325
tp2118
a(F-7.699206610798505
F-2.428024118640314
tp2119
a(F-7.67747374015735
F-3.267130301663835
tp2120
a(F-7.633186208023776
F1.5654833671495378
tp2121
a(F-7.643094774649676
F1.9480531462632325
tp2122
aa(lp2123
(F-7.7218125024662285
F-1.123142813359971
tp2124
a(F-7.721405949629336
F-1.2624579065543244
tp2125
a(F-7.719935828279979
F-1.1691077394610883
tp2126
a(F-7.7218125024662285
F-1.123142813359971
tp2127
aa(lp2128
(F-7.794340133830865
F1.8648068964500002
tp2129
a(F-7.850451969979694
F-2.5112703684535465
tp2130
a(F-7.833065673466773
F-3.1825553148723653
tp2131
a(F-7.7887781413331965
F1.6500583539410094
tp2132
a(F-7.794340133830865
F1.8648068964500002
tp2133
aa(lp2134
(F-7.945585493012061
F1.7815606466367662
tp2135
a(F-8.001697329160891
F-2.5945166182667814
tp2136
a(F-7.988657606776197
F-3.097980328080892
tp2137
a(F-7.94437007464262
F1.734633340732481
tp2138
a(F-7.945585493012061
F1.7815606466367662
tp2139
aa(lp2140
(F-8.111689646306388
F0.53949950917785827
tp2141
a(F-8.152942688342076
F-2.6777628680800145
tp2142
a(F-8.144249540085617
F-3.013405341289422
tp2143
a(F-8.111689646306388
F0.53949950917785827
tp2144
aa(lp2145
(F-8.283561526505423
F-1.1523779292643175
tp2146
a(F-8.304188047523269
F-2.7610091178932468
tp2147
a(F-8.299841473395041
F-2.9288303544979506
tp2148
a(F-8.283561526505423
F-1.1523779292643175
tp2149
aa.